	.file	"mctl_standby-sun8iw20.c"
	.option nopic
	.text
.Ltext0:
	.cfi_sections	.debug_frame
	.align	1
	.align	4
	.globl	dram_udelay
	.type	dram_udelay, @function
dram_udelay:
.LFB6:
	.file 1 "dram/sun20iw1p1/mctl_standby-sun8iw20.c"
	.loc 1 31 1
	.cfi_startproc
.LVL0:
	.loc 1 36 2
	.loc 1 37 2
	.loc 1 37 13
	.loc 1 39 1 is_stmt 0
	ret
	.cfi_endproc
.LFE6:
	.size	dram_udelay, .-dram_udelay
	.align	1
	.align	4
	.globl	dram_s_udelay
	.type	dram_s_udelay, @function
dram_s_udelay:
.LFB31:
	.cfi_startproc
	ret
	.cfi_endproc
.LFE31:
	.size	dram_s_udelay, .-dram_s_udelay
	.align	1
	.align	4
	.globl	dram_enable_all_master
	.type	dram_enable_all_master, @function
dram_enable_all_master:
.LFB8:
	.loc 1 57 1 is_stmt 1
	.cfi_startproc
	.loc 1 59 2
.LBB1030:
	.loc 1 59 2
#APP
# 59 "dram/sun20iw1p1/mctl_standby-sun8iw20.c" 1
	fence w,o
# 0 "" 2
	.loc 1 59 2
	.loc 1 59 2
.LVL1:
#NO_APP
.LBB1031:
.LBB1032:
	.file 2 "include/type.h"
	.loc 2 37 2
	li	a5,51388416
	addi	a3,a5,32
	li	a4,-1
#APP
# 37 "include/type.h" 1
	sw a4, 0(a3)
# 0 "" 2
.LVL2:
#NO_APP
.LBE1032:
.LBE1031:
	.loc 1 59 2
	.loc 1 59 2
.LBE1030:
	.loc 1 60 2
.LBB1033:
	.loc 1 60 2
#APP
# 60 "dram/sun20iw1p1/mctl_standby-sun8iw20.c" 1
	fence w,o
# 0 "" 2
	.loc 1 60 2
	.loc 1 60 2
.LVL3:
#NO_APP
.LBB1034:
.LBB1035:
	.loc 2 37 2
	li	a4,255
	addi	a3,a5,36
#APP
# 37 "include/type.h" 1
	sw a4, 0(a3)
# 0 "" 2
.LVL4:
#NO_APP
.LBE1035:
.LBE1034:
	.loc 1 60 2
	.loc 1 60 2
.LBE1033:
	.loc 1 61 2
.LBB1036:
	.loc 1 61 2
#APP
# 61 "dram/sun20iw1p1/mctl_standby-sun8iw20.c" 1
	fence w,o
# 0 "" 2
	.loc 1 61 2
	.loc 1 61 2
.LVL5:
#NO_APP
.LBB1037:
.LBB1038:
	.loc 2 37 2
	li	a4,65536
	addi	a5,a5,40
	addiw	a4,a4,-1
#APP
# 37 "include/type.h" 1
	sw a4, 0(a5)
# 0 "" 2
.LVL6:
#NO_APP
.LBE1038:
.LBE1037:
	.loc 1 61 2
	.loc 1 61 2
.LBE1036:
	.loc 1 62 2
	.loc 1 47 2
	.loc 1 48 2
	.loc 1 48 13
	.loc 1 63 1 is_stmt 0
	ret
	.cfi_endproc
.LFE8:
	.size	dram_enable_all_master, .-dram_enable_all_master
	.align	1
	.align	4
	.globl	dram_disable_all_master
	.type	dram_disable_all_master, @function
dram_disable_all_master:
.LFB9:
	.loc 1 70 1 is_stmt 1
	.cfi_startproc
	.loc 1 72 2
.LBB1039:
	.loc 1 72 2
#APP
# 72 "dram/sun20iw1p1/mctl_standby-sun8iw20.c" 1
	fence w,o
# 0 "" 2
	.loc 1 72 2
	.loc 1 72 2
.LVL7:
#NO_APP
.LBB1040:
.LBB1041:
	.loc 2 37 2
	li	a5,51388416
	li	a4,0
	addi	a3,a5,32
#APP
# 37 "include/type.h" 1
	sw a4, 0(a3)
# 0 "" 2
.LVL8:
#NO_APP
.LBE1041:
.LBE1040:
	.loc 1 72 2
	.loc 1 72 2
.LBE1039:
	.loc 1 73 2
.LBB1042:
	.loc 1 73 2
#APP
# 73 "dram/sun20iw1p1/mctl_standby-sun8iw20.c" 1
	fence w,o
# 0 "" 2
	.loc 1 73 2
	.loc 1 73 2
.LVL9:
#NO_APP
.LBB1043:
.LBB1044:
	.loc 2 37 2
	addi	a3,a5,36
#APP
# 37 "include/type.h" 1
	sw a4, 0(a3)
# 0 "" 2
.LVL10:
#NO_APP
.LBE1044:
.LBE1043:
	.loc 1 73 2
	.loc 1 73 2
.LBE1042:
	.loc 1 74 2
.LBB1045:
	.loc 1 74 2
#APP
# 74 "dram/sun20iw1p1/mctl_standby-sun8iw20.c" 1
	fence w,o
# 0 "" 2
	.loc 1 74 2
	.loc 1 74 2
.LVL11:
#NO_APP
.LBB1046:
.LBB1047:
	.loc 2 37 2
	addi	a5,a5,40
#APP
# 37 "include/type.h" 1
	sw a4, 0(a5)
# 0 "" 2
.LVL12:
#NO_APP
.LBE1047:
.LBE1046:
	.loc 1 74 2
	.loc 1 74 2
.LBE1045:
	.loc 1 75 2
	.loc 1 47 2
	.loc 1 48 2
	.loc 1 48 13
	.loc 1 76 1 is_stmt 0
	ret
	.cfi_endproc
.LFE9:
	.size	dram_disable_all_master, .-dram_disable_all_master
	.align	1
	.align	4
	.globl	bit_delay_compensation_standby
	.type	bit_delay_compensation_standby, @function
bit_delay_compensation_standby:
.LFB11:
	.loc 1 281 1 is_stmt 1
	.cfi_startproc
.LVL13:
	.loc 1 282 2
	.loc 1 284 2
.LBB1048:
	.loc 1 284 12
	.loc 1 284 12
	.loc 1 284 12
	.loc 1 284 12
.LBB1049:
.LBB1050:
	.loc 2 58 2
	.loc 2 60 2
	li	a0,51392512
.LVL14:
	addi	a4,a0,256
#APP
# 60 "include/type.h" 1
	lw a3, 0(a4)
# 0 "" 2
.LVL15:
	.loc 2 61 2
#NO_APP
.LBE1050:
.LBE1049:
	.loc 1 284 12
#APP
# 284 "dram/sun20iw1p1/mctl_standby-sun8iw20.c" 1
	fence i,r
# 0 "" 2
	.loc 1 284 12
	.loc 1 284 12
.LVL16:
#NO_APP
.LBE1048:
	.loc 1 285 2
	.loc 1 286 2
.LBB1051:
	.loc 1 286 2
#APP
# 286 "dram/sun20iw1p1/mctl_standby-sun8iw20.c" 1
	fence w,o
# 0 "" 2
	.loc 1 286 2
	.loc 1 286 2
.LVL17:
#NO_APP
.LBB1052:
.LBB1053:
	.loc 2 37 2
.LBE1053:
.LBE1052:
.LBE1051:
	.loc 1 285 10 is_stmt 0
	li	a5,-67108864
	addi	a5,a5,-1
	and	a5,a5,a3
.LBB1058:
.LBB1056:
.LBB1054:
	.loc 2 37 2
#APP
# 37 "include/type.h" 1
	sw a5, 0(a4)
# 0 "" 2
.LVL18:
#NO_APP
.LBE1054:
.LBE1056:
	.loc 1 286 2 is_stmt 1
	.loc 1 286 2
.LBE1058:
	.loc 1 288 2
.LBB1059:
.LBB1057:
.LBB1055:
	.loc 2 37 2 is_stmt 0
	li	a2,26
	addi	a0,a0,784
	lla	a1,.LANCHOR0
.LBE1055:
.LBE1057:
.LBE1059:
	.loc 1 288 2
	li	a6,70
.LVL19:
.L7:
	addiw	a5,a2,-11
	.loc 1 281 1
	mv	a4,a0
.LVL20:
	.align	3
.L8:
	.loc 1 292 4 is_stmt 1 discriminator 3
.LBB1060:
	.loc 1 292 4 discriminator 3
#APP
# 292 "dram/sun20iw1p1/mctl_standby-sun8iw20.c" 1
	fence w,o
# 0 "" 2
	.loc 1 292 4 discriminator 3
	.loc 1 292 4 discriminator 3
.LVL21:
#NO_APP
.LBB1061:
.LBB1062:
	.loc 2 37 2 discriminator 3
	lurw	a3,a1,a5,2
#APP
# 37 "include/type.h" 1
	sw a3, 0(a4)
# 0 "" 2
.LVL22:
#NO_APP
.LBE1062:
.LBE1061:
	.loc 1 292 4 discriminator 3
	.loc 1 292 4 discriminator 3
	addiw	a5,a5,1
.LVL23:
	addi	a4,a4,4
.LBE1060:
	.loc 1 290 3 is_stmt 0 discriminator 3
	bne	a5,a2,.L8
	addiw	a2,a5,11
	addi	a0,a0,128
	.loc 1 288 2 discriminator 2
	bne	a2,a6,.L7
	.loc 1 295 2
	li	a0,51392512
	li	a5,51392512
	addi	a5,a5,528
	lla	a2,.LANCHOR0-51392800
	addi	a3,a0,652
	.align	3
.L9:
	.loc 1 297 3 is_stmt 1 discriminator 3
.LBB1063:
	.loc 1 297 3 discriminator 3
#APP
# 297 "dram/sun20iw1p1/mctl_standby-sun8iw20.c" 1
	fence w,o
# 0 "" 2
	.loc 1 297 3 discriminator 3
	.loc 1 297 3 discriminator 3
.LVL24:
#NO_APP
.LBB1064:
.LBB1065:
	.loc 2 37 2 discriminator 3
	lrw	a4,a5,a2,0
#APP
# 37 "include/type.h" 1
	sw a4, 0(a5)
# 0 "" 2
.LVL25:
#NO_APP
.LBE1065:
.LBE1064:
	.loc 1 297 3 discriminator 3
	.loc 1 297 3 discriminator 3
	addi	a5,a5,4
.LBE1063:
	.loc 1 295 2 is_stmt 0 discriminator 3
	bne	a5,a3,.L9
.LVL26:
	.loc 1 301 3 is_stmt 1
.LBB1066:
	.loc 1 301 3
#APP
# 301 "dram/sun20iw1p1/mctl_standby-sun8iw20.c" 1
	fence w,o
# 0 "" 2
	.loc 1 301 3
	.loc 1 301 3
.LVL27:
#NO_APP
.LBB1067:
.LBB1068:
	.loc 2 37 2
	lw	a5,380(a1)
	addi	a4,a0,828
#APP
# 37 "include/type.h" 1
	sw a5, 0(a4)
# 0 "" 2
.LVL28:
#NO_APP
.LBE1068:
.LBE1067:
	.loc 1 301 3
	.loc 1 301 3
.LBE1066:
	.loc 1 301 3
.LBB1075:
	.loc 1 301 3
#APP
# 301 "dram/sun20iw1p1/mctl_standby-sun8iw20.c" 1
	fence w,o
# 0 "" 2
	.loc 1 301 3
	.loc 1 301 3
.LVL29:
#NO_APP
.LBB1072:
.LBB1069:
	.loc 2 37 2
	lw	a5,384(a1)
	addi	a4,a0,956
#APP
# 37 "include/type.h" 1
	sw a5, 0(a4)
# 0 "" 2
.LVL30:
#NO_APP
.LBE1069:
.LBE1072:
	.loc 1 301 3
	.loc 1 301 3
.LBE1075:
	.loc 1 301 3
.LBB1076:
	.loc 1 301 3
#APP
# 301 "dram/sun20iw1p1/mctl_standby-sun8iw20.c" 1
	fence w,o
# 0 "" 2
	.loc 1 301 3
	.loc 1 301 3
.LVL31:
#NO_APP
.LBB1073:
.LBB1070:
	.loc 2 37 2
	lw	a5,388(a1)
	addi	a4,a0,1084
#APP
# 37 "include/type.h" 1
	sw a5, 0(a4)
# 0 "" 2
.LVL32:
#NO_APP
.LBE1070:
.LBE1073:
	.loc 1 301 3
	.loc 1 301 3
.LBE1076:
	.loc 1 301 3
.LBB1077:
	.loc 1 301 3
#APP
# 301 "dram/sun20iw1p1/mctl_standby-sun8iw20.c" 1
	fence w,o
# 0 "" 2
	.loc 1 301 3
	.loc 1 301 3
.LVL33:
#NO_APP
.LBB1074:
.LBB1071:
	.loc 2 37 2
	lw	a5,392(a1)
	addi	a4,a0,1212
#APP
# 37 "include/type.h" 1
	sw a5, 0(a4)
# 0 "" 2
.LVL34:
#NO_APP
.LBE1071:
.LBE1074:
	.loc 1 301 3
	.loc 1 301 3
.LBE1077:
	.loc 1 303 2
.LBB1078:
	.loc 1 303 12
	.loc 1 303 12
	.loc 1 303 12
	.loc 1 303 12
.LBB1079:
.LBB1080:
	.loc 2 58 2
	.loc 2 60 2
	addi	a0,a0,256
#APP
# 60 "include/type.h" 1
	lw a5, 0(a0)
# 0 "" 2
.LVL35:
	.loc 2 61 2
#NO_APP
.LBE1080:
.LBE1079:
	.loc 1 303 12
#APP
# 303 "dram/sun20iw1p1/mctl_standby-sun8iw20.c" 1
	fence i,r
# 0 "" 2
	.loc 1 303 12
	.loc 1 303 12
.LVL36:
#NO_APP
.LBE1078:
	.loc 1 304 2
	.loc 1 305 2
.LBB1081:
	.loc 1 305 2
#APP
# 305 "dram/sun20iw1p1/mctl_standby-sun8iw20.c" 1
	fence w,o
# 0 "" 2
	.loc 1 305 2
	.loc 1 305 2
.LVL37:
#NO_APP
.LBB1082:
.LBB1083:
	.loc 2 37 2
.LBE1083:
.LBE1082:
.LBE1081:
	.loc 1 304 10 is_stmt 0
	li	a4,67108864
	or	a5,a5,a4
.LVL38:
.LBB1086:
.LBB1085:
.LBB1084:
	.loc 2 37 2
#APP
# 37 "include/type.h" 1
	sw a5, 0(a0)
# 0 "" 2
.LVL39:
#NO_APP
.LBE1084:
.LBE1085:
	.loc 1 305 2 is_stmt 1
	.loc 1 305 2
.LBE1086:
	.loc 1 306 1 is_stmt 0
	ret
	.cfi_endproc
.LFE11:
	.size	bit_delay_compensation_standby, .-bit_delay_compensation_standby
	.align	1
	.align	4
	.globl	ccm_set_pll_ddr_sscg_stb
	.type	ccm_set_pll_ddr_sscg_stb, @function
ccm_set_pll_ddr_sscg_stb:
.LFB15:
	.loc 1 389 1 is_stmt 1
	.cfi_startproc
.LVL40:
	.loc 1 390 2
	.loc 1 392 2
.LBB1087:
	.loc 1 392 13
	.loc 1 392 13
	.loc 1 392 13
	.loc 1 392 13
	extu	a1,a1,31,0
.LVL41:
.LBB1088:
.LBB1089:
	.loc 2 58 2
	.loc 2 60 2
#APP
# 60 "include/type.h" 1
	lw a5, 0(a1)
# 0 "" 2
.LVL42:
	.loc 2 61 2
#NO_APP
.LBE1089:
.LBE1088:
	.loc 1 392 13
#APP
# 392 "dram/sun20iw1p1/mctl_standby-sun8iw20.c" 1
	fence i,r
# 0 "" 2
	.loc 1 392 13
	.loc 1 392 13
.LVL43:
#NO_APP
.LBE1087:
	.loc 1 393 2
	.loc 1 393 4 is_stmt 0
	extu	a5,a5,1+1-1,1
.LVL44:
	extu	a2,a2,31,0
	beqz	a5,.L14
	.loc 1 394 3 is_stmt 1
.LBB1090:
	.loc 1 394 3
#APP
# 394 "dram/sun20iw1p1/mctl_standby-sun8iw20.c" 1
	fence w,o
# 0 "" 2
	.loc 1 394 3
	.loc 1 394 3
#NO_APP
.LBB1091:
	.loc 1 394 3
	.loc 1 394 3
	.loc 1 394 3
	.loc 1 394 3
.LVL45:
.LBB1092:
.LBB1093:
	.loc 2 58 2
	.loc 2 60 2
#APP
# 60 "include/type.h" 1
	lw a5, 0(a2)
# 0 "" 2
.LVL46:
	.loc 2 61 2
#NO_APP
.LBE1093:
.LBE1092:
	.loc 1 394 3
#APP
# 394 "dram/sun20iw1p1/mctl_standby-sun8iw20.c" 1
	fence i,r
# 0 "" 2
	.loc 1 394 3
	.loc 1 394 3
.LVL47:
#NO_APP
.LBE1091:
.LBB1094:
.LBB1095:
	.loc 2 37 2
.LBE1095:
.LBE1094:
	.loc 1 394 3 is_stmt 0
	li	a4,524288
	or	a5,a5,a4
.LVL48:
.LBB1097:
.LBB1096:
	.loc 2 37 2
#APP
# 37 "include/type.h" 1
	sw a5, 0(a2)
# 0 "" 2
#NO_APP
.L14:
.LBE1096:
.LBE1097:
	.loc 1 394 3 is_stmt 1 discriminator 1
	.loc 1 394 3 discriminator 1
.LBE1090:
	.loc 1 396 2 discriminator 1
	.loc 1 396 30 is_stmt 0 discriminator 1
	lw	a5,92(a0)
	li	a4,3
	.loc 1 396 10 discriminator 1
	extu	a5,a5,20+3-1,20
.LVL49:
	.loc 1 398 2 is_stmt 1 discriminator 1
	beq	a5,a4,.L15
	bleu	a5,a4,.L26
	li	a4,4
	beq	a5,a4,.L19
	li	a4,5
	bne	a5,a4,.L19
	.loc 1 413 4
.LBB1098:
	.loc 1 413 4
#APP
# 413 "dram/sun20iw1p1/mctl_standby-sun8iw20.c" 1
	fence w,o
# 0 "" 2
	.loc 1 413 4
	.loc 1 413 4
.LVL50:
#NO_APP
.LBB1099:
.LBB1100:
	.loc 2 37 2
	li	a5,-175767552
.LVL51:
#APP
# 37 "include/type.h" 1
	sw a5, 0(a2)
# 0 "" 2
#NO_APP
.LBE1100:
.LBE1099:
.LBE1098:
	.loc 1 419 2
.LBB1101:
	.loc 1 419 12
	.loc 1 419 12
	.loc 1 419 12
	.loc 1 419 12
.LVL52:
.LBB1102:
.LBB1103:
	.loc 2 58 2
	.loc 2 60 2
#APP
# 60 "include/type.h" 1
	lw a5, 0(a1)
# 0 "" 2
.LVL53:
	.loc 2 61 2
#NO_APP
.LBE1103:
.LBE1102:
	.loc 1 419 12
#APP
# 419 "dram/sun20iw1p1/mctl_standby-sun8iw20.c" 1
	fence i,r
# 0 "" 2
	.loc 1 419 12
	.loc 1 419 12
.LVL54:
#NO_APP
.LBE1101:
	.loc 1 420 2
	.loc 1 421 2
.LBB1112:
	.loc 1 421 2
#APP
# 421 "dram/sun20iw1p1/mctl_standby-sun8iw20.c" 1
	fence w,o
# 0 "" 2
	.loc 1 421 2
	.loc 1 421 2
.LVL55:
#NO_APP
.LBB1113:
.LBB1114:
	.loc 2 37 2
.LBE1114:
.LBE1113:
.LBE1112:
	.loc 1 420 10 is_stmt 0
	li	a4,16777216
	or	a5,a5,a4
.LVL56:
.LBB1133:
.LBB1124:
.LBB1115:
	.loc 2 37 2
#APP
# 37 "include/type.h" 1
	sw a5, 0(a1)
# 0 "" 2
.LVL57:
#NO_APP
.LBE1115:
.LBE1124:
	.loc 1 421 2 is_stmt 1
	.loc 1 421 2
.LBE1133:
	.loc 1 422 2
	.loc 1 423 1 is_stmt 0
	li	a0,0
.LVL58:
	ret
.LVL59:
	.align	2
.L26:
	li	a4,1
	beq	a5,a4,.L17
	li	a4,2
	bne	a5,a4,.L19
	.loc 1 404 4 is_stmt 1
.LBB1134:
	.loc 1 404 4
#APP
# 404 "dram/sun20iw1p1/mctl_standby-sun8iw20.c" 1
	fence w,o
# 0 "" 2
	.loc 1 404 4
	.loc 1 404 4
.LVL60:
#NO_APP
.LBB1135:
.LBB1136:
	.loc 2 37 2
	li	a5,-385441792
.LVL61:
	addiw	a5,a5,-1639
#APP
# 37 "include/type.h" 1
	sw a5, 0(a2)
# 0 "" 2
#NO_APP
.LBE1136:
.LBE1135:
.LBE1134:
	.loc 1 419 2
.LBB1137:
	.loc 1 419 12
	.loc 1 419 12
	.loc 1 419 12
	.loc 1 419 12
.LVL62:
.LBB1108:
.LBB1104:
	.loc 2 58 2
	.loc 2 60 2
#APP
# 60 "include/type.h" 1
	lw a5, 0(a1)
# 0 "" 2
.LVL63:
	.loc 2 61 2
#NO_APP
.LBE1104:
.LBE1108:
	.loc 1 419 12
#APP
# 419 "dram/sun20iw1p1/mctl_standby-sun8iw20.c" 1
	fence i,r
# 0 "" 2
	.loc 1 419 12
	.loc 1 419 12
.LVL64:
#NO_APP
.LBE1137:
	.loc 1 420 2
	.loc 1 421 2
.LBB1138:
	.loc 1 421 2
#APP
# 421 "dram/sun20iw1p1/mctl_standby-sun8iw20.c" 1
	fence w,o
# 0 "" 2
	.loc 1 421 2
	.loc 1 421 2
.LVL65:
#NO_APP
.LBB1125:
.LBB1116:
	.loc 2 37 2
.LBE1116:
.LBE1125:
.LBE1138:
	.loc 1 420 10 is_stmt 0
	li	a4,16777216
	or	a5,a5,a4
.LVL66:
.LBB1139:
.LBB1126:
.LBB1117:
	.loc 2 37 2
#APP
# 37 "include/type.h" 1
	sw a5, 0(a1)
# 0 "" 2
.LVL67:
#NO_APP
.LBE1117:
.LBE1126:
	.loc 1 421 2 is_stmt 1
	.loc 1 421 2
.LBE1139:
	.loc 1 422 2
	.loc 1 423 1 is_stmt 0
	li	a0,0
.LVL68:
	ret
.LVL69:
	.align	2
.L19:
	.loc 1 416 4 is_stmt 1
.LBB1140:
	.loc 1 416 4
#APP
# 416 "dram/sun20iw1p1/mctl_standby-sun8iw20.c" 1
	fence w,o
# 0 "" 2
	.loc 1 416 4
	.loc 1 416 4
.LVL70:
#NO_APP
.LBB1141:
.LBB1142:
	.loc 2 37 2
	li	a5,-234475520
.LVL71:
	addiw	a5,a5,819
#APP
# 37 "include/type.h" 1
	sw a5, 0(a2)
# 0 "" 2
#NO_APP
.LBE1142:
.LBE1141:
.LBE1140:
	.loc 1 419 2
.LBB1143:
	.loc 1 419 12
	.loc 1 419 12
	.loc 1 419 12
	.loc 1 419 12
.LVL72:
.LBB1109:
.LBB1105:
	.loc 2 58 2
	.loc 2 60 2
#APP
# 60 "include/type.h" 1
	lw a5, 0(a1)
# 0 "" 2
.LVL73:
	.loc 2 61 2
#NO_APP
.LBE1105:
.LBE1109:
	.loc 1 419 12
#APP
# 419 "dram/sun20iw1p1/mctl_standby-sun8iw20.c" 1
	fence i,r
# 0 "" 2
	.loc 1 419 12
	.loc 1 419 12
.LVL74:
#NO_APP
.LBE1143:
	.loc 1 420 2
	.loc 1 421 2
.LBB1144:
	.loc 1 421 2
#APP
# 421 "dram/sun20iw1p1/mctl_standby-sun8iw20.c" 1
	fence w,o
# 0 "" 2
	.loc 1 421 2
	.loc 1 421 2
.LVL75:
#NO_APP
.LBB1127:
.LBB1118:
	.loc 2 37 2
.LBE1118:
.LBE1127:
.LBE1144:
	.loc 1 420 10 is_stmt 0
	li	a4,16777216
	or	a5,a5,a4
.LVL76:
.LBB1145:
.LBB1128:
.LBB1119:
	.loc 2 37 2
#APP
# 37 "include/type.h" 1
	sw a5, 0(a1)
# 0 "" 2
.LVL77:
#NO_APP
.LBE1119:
.LBE1128:
	.loc 1 421 2 is_stmt 1
	.loc 1 421 2
.LBE1145:
	.loc 1 422 2
	.loc 1 423 1 is_stmt 0
	li	a0,0
.LVL78:
	ret
.LVL79:
	.align	2
.L15:
	.loc 1 407 4 is_stmt 1
.LBB1146:
	.loc 1 407 4
#APP
# 407 "dram/sun20iw1p1/mctl_standby-sun8iw20.c" 1
	fence w,o
# 0 "" 2
	.loc 1 407 4
	.loc 1 407 4
.LVL80:
#NO_APP
.LBB1147:
.LBB1148:
	.loc 2 37 2
	li	a5,-309960704
.LVL81:
	addiw	a5,a5,1638
#APP
# 37 "include/type.h" 1
	sw a5, 0(a2)
# 0 "" 2
#NO_APP
.LBE1148:
.LBE1147:
.LBE1146:
	.loc 1 419 2
.LBB1149:
	.loc 1 419 12
	.loc 1 419 12
	.loc 1 419 12
	.loc 1 419 12
.LVL82:
.LBB1110:
.LBB1106:
	.loc 2 58 2
	.loc 2 60 2
#APP
# 60 "include/type.h" 1
	lw a5, 0(a1)
# 0 "" 2
.LVL83:
	.loc 2 61 2
#NO_APP
.LBE1106:
.LBE1110:
	.loc 1 419 12
#APP
# 419 "dram/sun20iw1p1/mctl_standby-sun8iw20.c" 1
	fence i,r
# 0 "" 2
	.loc 1 419 12
	.loc 1 419 12
.LVL84:
#NO_APP
.LBE1149:
	.loc 1 420 2
	.loc 1 421 2
.LBB1150:
	.loc 1 421 2
#APP
# 421 "dram/sun20iw1p1/mctl_standby-sun8iw20.c" 1
	fence w,o
# 0 "" 2
	.loc 1 421 2
	.loc 1 421 2
.LVL85:
#NO_APP
.LBB1129:
.LBB1120:
	.loc 2 37 2
.LBE1120:
.LBE1129:
.LBE1150:
	.loc 1 420 10 is_stmt 0
	li	a4,16777216
	or	a5,a5,a4
.LVL86:
.LBB1151:
.LBB1130:
.LBB1121:
	.loc 2 37 2
#APP
# 37 "include/type.h" 1
	sw a5, 0(a1)
# 0 "" 2
.LVL87:
#NO_APP
.LBE1121:
.LBE1130:
	.loc 1 421 2 is_stmt 1
	.loc 1 421 2
.LBE1151:
	.loc 1 422 2
	.loc 1 423 1 is_stmt 0
	li	a0,0
.LVL88:
	ret
.LVL89:
	.align	2
.L17:
	.loc 1 401 4 is_stmt 1
.LBB1152:
	.loc 1 401 4
#APP
# 401 "dram/sun20iw1p1/mctl_standby-sun8iw20.c" 1
	fence w,o
# 0 "" 2
	.loc 1 401 4
	.loc 1 401 4
.LVL90:
#NO_APP
.LBB1153:
.LBB1154:
	.loc 2 37 2
	li	a5,-460926976
.LVL91:
	addiw	a5,a5,-820
#APP
# 37 "include/type.h" 1
	sw a5, 0(a2)
# 0 "" 2
#NO_APP
.LBE1154:
.LBE1153:
.LBE1152:
	.loc 1 419 2
.LBB1155:
	.loc 1 419 12
	.loc 1 419 12
	.loc 1 419 12
	.loc 1 419 12
.LVL92:
.LBB1111:
.LBB1107:
	.loc 2 58 2
	.loc 2 60 2
#APP
# 60 "include/type.h" 1
	lw a5, 0(a1)
# 0 "" 2
.LVL93:
	.loc 2 61 2
#NO_APP
.LBE1107:
.LBE1111:
	.loc 1 419 12
#APP
# 419 "dram/sun20iw1p1/mctl_standby-sun8iw20.c" 1
	fence i,r
# 0 "" 2
	.loc 1 419 12
	.loc 1 419 12
.LVL94:
#NO_APP
.LBE1155:
	.loc 1 420 2
	.loc 1 421 2
.LBB1156:
	.loc 1 421 2
#APP
# 421 "dram/sun20iw1p1/mctl_standby-sun8iw20.c" 1
	fence w,o
# 0 "" 2
	.loc 1 421 2
	.loc 1 421 2
.LVL95:
#NO_APP
.LBB1131:
.LBB1122:
	.loc 2 37 2
.LBE1122:
.LBE1131:
.LBE1156:
	.loc 1 420 10 is_stmt 0
	li	a4,16777216
	or	a5,a5,a4
.LVL96:
.LBB1157:
.LBB1132:
.LBB1123:
	.loc 2 37 2
#APP
# 37 "include/type.h" 1
	sw a5, 0(a1)
# 0 "" 2
.LVL97:
#NO_APP
.LBE1123:
.LBE1132:
	.loc 1 421 2 is_stmt 1
	.loc 1 421 2
.LBE1157:
	.loc 1 422 2
	.loc 1 423 1 is_stmt 0
	li	a0,0
.LVL98:
	ret
	.cfi_endproc
.LFE15:
	.size	ccm_set_pll_ddr_sscg_stb, .-ccm_set_pll_ddr_sscg_stb
	.align	1
	.align	4
	.globl	ccm_set_pll_ddr_clk_stb
	.type	ccm_set_pll_ddr_clk_stb, @function
ccm_set_pll_ddr_clk_stb:
.LFB16:
	.loc 1 431 1 is_stmt 1
	.cfi_startproc
.LVL99:
	.loc 1 432 2
	.loc 1 433 3
	.loc 1 434 3
	.loc 1 435 4
	.loc 1 436 3
	.loc 1 439 3
	.loc 1 440 3
	.loc 1 442 3
	.loc 1 442 25 is_stmt 0
	lw	a5,92(a1)
	.loc 1 442 5
	extu	a5,a5,6+1-1,6
	beq	a5,a0,.L33
	.loc 1 445 4 is_stmt 1
	.loc 1 445 12 is_stmt 0
	lw	a0,76(a1)
.LVL100:
	slliw	a0,a0,1
.LVL101:
.L29:
	.loc 1 450 2 is_stmt 1
	.loc 1 450 3 is_stmt 0
	li	a5,24
.LBB1158:
.LBB1159:
.LBB1160:
	.loc 2 60 2
	li	a4,33558528
.LBE1160:
.LBE1159:
.LBE1158:
	.loc 1 450 3
	divuw	a0,a0,a5
.LVL102:
	.loc 1 451 2 is_stmt 1
.LBB1163:
	.loc 1 451 9
	.loc 1 451 9
	.loc 1 451 9
	.loc 1 451 9
.LBB1162:
.LBB1161:
	.loc 2 58 2
	.loc 2 60 2
	addi	a4,a4,16
#APP
# 60 "include/type.h" 1
	lw a2, 0(a4)
# 0 "" 2
.LVL103:
	.loc 2 61 2
#NO_APP
.LBE1161:
.LBE1162:
	.loc 1 451 9
#APP
# 451 "dram/sun20iw1p1/mctl_standby-sun8iw20.c" 1
	fence i,r
# 0 "" 2
	.loc 1 451 9
	.loc 1 451 9
.LVL104:
#NO_APP
.LBE1163:
	.loc 1 452 2
	.loc 1 453 2
	.loc 1 454 2
	.loc 1 454 30 is_stmt 0
	addiw	a5,a0,-1
	.loc 1 454 35
	slliw	a3,a5,8
	.loc 1 453 7
	li	a5,-524288
	addi	a5,a5,255
	and	a5,a5,a2
	.loc 1 454 7
	or	a5,a5,a3
	sext.w	a5,a5
.LVL105:
	.loc 1 455 2 is_stmt 1
.LBB1164:
	.loc 1 455 2
#APP
# 455 "dram/sun20iw1p1/mctl_standby-sun8iw20.c" 1
	fence w,o
# 0 "" 2
	.loc 1 455 2
	.loc 1 455 2
.LVL106:
#NO_APP
.LBB1165:
.LBB1166:
	.loc 2 37 2
.LBE1166:
.LBE1165:
.LBE1164:
	.loc 1 454 7 is_stmt 0
	li	a3,-2147483648
	or	a2,a5,a3
.LVL107:
.LBB1169:
.LBB1168:
.LBB1167:
	.loc 2 37 2
#APP
# 37 "include/type.h" 1
	sw a2, 0(a4)
# 0 "" 2
.LVL108:
#NO_APP
.LBE1167:
.LBE1168:
	.loc 1 455 2 is_stmt 1
	.loc 1 455 2
.LBE1169:
	.loc 1 462 3
	li	a2,-536870912
	addi	a2,a2,-1
	and	a5,a5,a2
.LVL109:
	.loc 1 463 3
.LBB1170:
	.loc 1 463 3
#APP
# 463 "dram/sun20iw1p1/mctl_standby-sun8iw20.c" 1
	fence w,o
# 0 "" 2
	.loc 1 463 3
	.loc 1 463 3
.LVL110:
#NO_APP
.LBB1171:
.LBB1172:
	.loc 2 37 2
.LBE1172:
.LBE1171:
.LBE1170:
	.loc 1 462 8 is_stmt 0
	or	a3,a5,a3
.LBB1175:
.LBB1174:
.LBB1173:
	.loc 2 37 2
#APP
# 37 "include/type.h" 1
	sw a3, 0(a4)
# 0 "" 2
.LVL111:
#NO_APP
.LBE1173:
.LBE1174:
	.loc 1 463 3 is_stmt 1
	.loc 1 463 3
.LBE1175:
	.loc 1 465 3
.LBB1176:
	.loc 1 465 3
#APP
# 465 "dram/sun20iw1p1/mctl_standby-sun8iw20.c" 1
	fence w,o
# 0 "" 2
	.loc 1 465 3
	.loc 1 465 3
.LVL112:
#NO_APP
.LBB1177:
.LBB1178:
	.loc 2 37 2
.LBE1178:
.LBE1177:
	.loc 1 465 3 is_stmt 0
	li	a3,-1610612736
	or	a5,a5,a3
.LVL113:
.LBB1180:
.LBB1179:
	.loc 2 37 2
#APP
# 37 "include/type.h" 1
	sw a5, 0(a4)
# 0 "" 2
#NO_APP
.LBE1179:
.LBE1180:
.LBE1176:
	.loc 1 467 33
	li	a3,268435456
	.align	3
.L30:
	.loc 1 467 44 is_stmt 1 discriminator 1
.LBB1181:
	.loc 1 467 11 discriminator 1
	.loc 1 467 11 discriminator 1
	.loc 1 467 11 discriminator 1
	.loc 1 467 11 discriminator 1
.LVL114:
.LBB1182:
.LBB1183:
	.loc 2 58 2 discriminator 1
	.loc 2 60 2 discriminator 1
#APP
# 60 "include/type.h" 1
	lw a5, 0(a4)
# 0 "" 2
.LVL115:
	.loc 2 61 2 discriminator 1
#NO_APP
.LBE1183:
.LBE1182:
	.loc 1 467 11 discriminator 1
#APP
# 467 "dram/sun20iw1p1/mctl_standby-sun8iw20.c" 1
	fence i,r
# 0 "" 2
	.loc 1 467 11 discriminator 1
	.loc 1 467 11 discriminator 1
#NO_APP
.LBE1181:
	.loc 1 467 8 is_stmt 0 discriminator 1
	and	a5,a5,a3
.LVL116:
	beqz	a5,.L30
	.loc 1 468 3 is_stmt 1
.LVL117:
	.loc 1 36 2
	.loc 1 37 2
	.loc 1 37 13
	.loc 1 470 3
.LBB1184:
	.loc 1 470 10
	.loc 1 470 10
	.loc 1 470 10
	.loc 1 470 10
.LBB1185:
.LBB1186:
	.loc 2 58 2
	.loc 2 60 2
#APP
# 60 "include/type.h" 1
	lw a5, 0(a4)
# 0 "" 2
.LVL118:
	.loc 2 61 2
#NO_APP
.LBE1186:
.LBE1185:
	.loc 1 470 10
#APP
# 470 "dram/sun20iw1p1/mctl_standby-sun8iw20.c" 1
	fence i,r
# 0 "" 2
	.loc 1 470 10
	.loc 1 470 10
.LVL119:
#NO_APP
.LBE1184:
	.loc 1 471 3
	.loc 1 472 3
.LBB1187:
	.loc 1 472 3
#APP
# 472 "dram/sun20iw1p1/mctl_standby-sun8iw20.c" 1
	fence w,o
# 0 "" 2
	.loc 1 472 3
	.loc 1 472 3
.LVL120:
#NO_APP
.LBB1188:
.LBB1189:
	.loc 2 37 2
.LBE1189:
.LBE1188:
.LBE1187:
	.loc 1 471 8 is_stmt 0
	li	a3,134217728
	or	a5,a5,a3
.LVL121:
.LBB1192:
.LBB1191:
.LBB1190:
	.loc 2 37 2
#APP
# 37 "include/type.h" 1
	sw a5, 0(a4)
# 0 "" 2
.LVL122:
#NO_APP
.LBE1190:
.LBE1191:
	.loc 1 472 3 is_stmt 1
	.loc 1 472 3
.LBE1192:
	.loc 1 475 3
.LBB1193:
	.loc 1 475 10
	.loc 1 475 10
	.loc 1 475 10
	.loc 1 475 10
.LBB1194:
.LBB1195:
	.loc 2 58 2
	.loc 2 60 2
	li	a4,33562624
	addi	a4,a4,-2048
#APP
# 60 "include/type.h" 1
	lw a3, 0(a4)
# 0 "" 2
.LVL123:
	.loc 2 61 2
#NO_APP
.LBE1195:
.LBE1194:
	.loc 1 475 10
#APP
# 475 "dram/sun20iw1p1/mctl_standby-sun8iw20.c" 1
	fence i,r
# 0 "" 2
	.loc 1 475 10
	.loc 1 475 10
.LVL124:
#NO_APP
.LBE1193:
	.loc 1 476 3
	.loc 1 477 3
	.loc 1 477 8 is_stmt 0
	li	a5,-50331648
	addiw	a5,a5,-772
	and	a5,a5,a3
.LVL125:
	.loc 1 478 3 is_stmt 1
	.loc 1 479 3
.LBB1196:
	.loc 1 479 3
#APP
# 479 "dram/sun20iw1p1/mctl_standby-sun8iw20.c" 1
	fence w,o
# 0 "" 2
	.loc 1 479 3
	.loc 1 479 3
.LVL126:
#NO_APP
.LBB1197:
.LBB1198:
	.loc 2 37 2
.LBE1198:
.LBE1197:
.LBE1196:
	.loc 1 478 8 is_stmt 0
	li	a3,-2147483648
.LVL127:
	or	a5,a5,a3
.LVL128:
.LBB1201:
.LBB1200:
.LBB1199:
	.loc 2 37 2
#APP
# 37 "include/type.h" 1
	sw a5, 0(a4)
# 0 "" 2
.LVL129:
#NO_APP
.LBE1199:
.LBE1200:
	.loc 1 479 3 is_stmt 1
	.loc 1 479 3
.LBE1201:
	.loc 1 484 3
	.loc 1 485 3
	.loc 1 484 16 is_stmt 0
	slliw	a5,a0,1
	addw	a0,a5,a0
.LVL130:
	.loc 1 486 1
	slliw	a0,a0,3
	ret
.LVL131:
	.align	2
.L33:
	.loc 1 443 4 is_stmt 1
	.loc 1 443 12 is_stmt 0
	lw	a0,0(a1)
.LVL132:
	slliw	a0,a0,1
.LVL133:
	j	.L29
	.cfi_endproc
.LFE16:
	.size	ccm_set_pll_ddr_clk_stb, .-ccm_set_pll_ddr_clk_stb
	.align	1
	.align	4
	.globl	mctl_phy_ac_remapping_standby
	.type	mctl_phy_ac_remapping_standby, @function
mctl_phy_ac_remapping_standby:
.LFB19:
	.loc 1 608 1 is_stmt 1
	.cfi_startproc
.LVL134:
	.loc 1 611 3
.LBB1202:
	.loc 1 611 20
	.loc 1 611 20
	.loc 1 611 20
	.loc 1 611 20
.LBB1203:
.LBB1204:
	.loc 2 58 2
	.loc 2 60 2
.LBE1204:
.LBE1203:
.LBE1202:
	.loc 1 608 1 is_stmt 0
	addi	sp,sp,-80
	.cfi_def_cfa_offset 80
.LBB1209:
.LBB1207:
.LBB1205:
	.loc 2 60 2
	li	a5,50356224
.LBE1205:
.LBE1207:
.LBE1209:
	.loc 1 608 1
	sd	s0,72(sp)
	sd	s1,64(sp)
	sd	s2,56(sp)
	sd	s3,48(sp)
	sd	s4,40(sp)
	sd	s5,32(sp)
	sd	s6,24(sp)
	sd	s7,16(sp)
	sd	s8,8(sp)
	sd	s9,0(sp)
	.cfi_offset 8, -8
	.cfi_offset 9, -16
	.cfi_offset 18, -24
	.cfi_offset 19, -32
	.cfi_offset 20, -40
	.cfi_offset 21, -48
	.cfi_offset 22, -56
	.cfi_offset 23, -64
	.cfi_offset 24, -72
	.cfi_offset 25, -80
.LBB1210:
.LBB1208:
.LBB1206:
	.loc 2 60 2
	addi	a5,a5,40
#APP
# 60 "include/type.h" 1
	lw a5, 0(a5)
# 0 "" 2
.LVL135:
	.loc 2 61 2 is_stmt 1
#NO_APP
.LBE1206:
.LBE1208:
	.loc 1 611 20
#APP
# 611 "dram/sun20iw1p1/mctl_standby-sun8iw20.c" 1
	fence i,r
# 0 "" 2
	.loc 1 611 20
	.loc 1 611 20
#NO_APP
.LBE1210:
	.loc 1 633 25 is_stmt 0
	lw	a4,92(a0)
	.loc 1 611 7
	extu	a5,a5,8+4-1,8
.LVL136:
	.loc 1 612 3 is_stmt 1
	.loc 1 613 3
	.loc 1 614 3
	.loc 1 615 3
	.loc 1 616 3
	.loc 1 623 3
	.loc 1 630 3
	.loc 1 631 42
	.loc 1 633 3
	.loc 1 633 5 is_stmt 0
	extu	a4,a4,18+2-1,18
	bnez	a4,.L39
	.loc 1 636 5 is_stmt 1
	addiw	a2,a5,-8
	li	a4,6
	mv	a3,a2
	bleu	a2,a4,.L42
	.loc 1 684 15 is_stmt 0
	lw	a4,4(a0)
	li	a0,2
.LVL137:
	.loc 1 636 5
	li	a7,22
	li	t1,11
	li	t3,19
	li	t6,20
	li	a3,17
	li	t4,21
	li	t0,0
	li	t2,0
	li	s1,0
	li	a1,9
	li	s0,5
	li	s2,3
	li	s3,6
	li	s4,2
	li	s6,13
	li	a2,1
	li	s5,18
	li	t5,8
	li	s7,7
	li	s8,10
	li	s9,12
	li	a6,4
.LVL138:
	.loc 1 684 3 is_stmt 1
	bne	a4,a0,.L43
.L36:
	.loc 1 688 7
	.loc 1 688 9 is_stmt 0
	addiw	a5,a5,-13
.LVL139:
	li	a4,1
	bleu	a5,a4,.L44
.LVL140:
.L34:
	.loc 1 713 2
	ld	s0,72(sp)
	.cfi_remember_state
	.cfi_restore 8
	ld	s1,64(sp)
	.cfi_restore 9
	ld	s2,56(sp)
	.cfi_restore 18
	ld	s3,48(sp)
	.cfi_restore 19
	ld	s4,40(sp)
	.cfi_restore 20
	ld	s5,32(sp)
	.cfi_restore 21
	ld	s6,24(sp)
	.cfi_restore 22
	ld	s7,16(sp)
	.cfi_restore 23
	ld	s8,8(sp)
	.cfi_restore 24
	ld	s9,0(sp)
	.cfi_restore 25
	addi	sp,sp,80
	.cfi_def_cfa_offset 0
	jr	ra
.LVL141:
	.align	2
.L39:
	.cfi_restore_state
	.loc 1 682 2
	li	a7,11
	li	t1,20
	li	t3,21
	li	t6,16
	li	a3,22
	li	t4,19
	li	t0,5
	li	t2,10
	li	s1,6
	li	a1,15
	li	s0,8
	li	s2,13
	li	s3,14
	li	s4,18
	li	s6,12
	li	a2,17
	li	s5,1
	li	t5,9
	li	s7,7
	li	s8,4
	li	s9,2
	li	a6,3
.L35:
.LVL142:
	.loc 1 684 3 is_stmt 1
	.loc 1 684 15 is_stmt 0
	lw	a4,4(a0)
	li	a0,2
.LVL143:
	beq	a4,a0,.L36
.L43:
	li	a5,3
.LVL144:
	bne	a4,a5,.L34
	.loc 1 699 7 is_stmt 1
.LBB1211:
	.loc 1 699 7
#APP
# 699 "dram/sun20iw1p1/mctl_standby-sun8iw20.c" 1
	fence w,o
# 0 "" 2
	.loc 1 699 7
	.loc 1 699 7
#NO_APP
	slliw	a6,a6,5
.LVL145:
	slliw	a0,s9,10
	or	a0,a6,a0
	slliw	s8,s8,15
.LVL146:
	or	a0,a0,s8
	slliw	s7,s7,20
.LVL147:
	or	a0,a0,s7
	slliw	t5,t5,25
.LVL148:
	or	a0,a0,t5
.LBB1212:
.LBB1213:
	.loc 2 37 2 is_stmt 0
	li	a6,51388416
.LBE1213:
.LBE1212:
	.loc 1 699 7
	sext.w	a0,a0
.LVL149:
.LBB1215:
.LBB1214:
	.loc 2 37 2 is_stmt 1
	addi	t5,a6,1280
#APP
# 37 "include/type.h" 1
	sw a0, 0(t5)
# 0 "" 2
.LVL150:
#NO_APP
.LBE1214:
.LBE1215:
	.loc 1 699 7
	.loc 1 699 7
.LBE1211:
	.loc 1 700 7
.LBB1216:
	.loc 1 700 7
#APP
# 700 "dram/sun20iw1p1/mctl_standby-sun8iw20.c" 1
	fence w,o
# 0 "" 2
	.loc 1 700 7
	.loc 1 700 7
.LVL151:
#NO_APP
.LBB1217:
.LBB1218:
	.loc 2 37 2
.LBE1218:
.LBE1217:
	.loc 1 700 7 is_stmt 0
	slliw	a2,a2,5
.LVL152:
	slliw	a4,s6,10
	or	a4,a2,a4
	or	a4,a4,s5
	slliw	s4,s4,15
.LVL153:
	or	a4,a4,s4
	slliw	s3,s3,20
.LVL154:
	or	a4,a4,s3
	slliw	s2,s2,25
.LVL155:
	or	a4,a4,s2
.LBB1220:
.LBB1219:
	.loc 2 37 2
	addi	a5,a6,1284
#APP
# 37 "include/type.h" 1
	sw a4, 0(a5)
# 0 "" 2
.LVL156:
#NO_APP
.LBE1219:
.LBE1220:
	.loc 1 700 7 is_stmt 1
	.loc 1 700 7
.LBE1216:
	.loc 1 701 7
.LBB1221:
	.loc 1 701 7
#APP
# 701 "dram/sun20iw1p1/mctl_standby-sun8iw20.c" 1
	fence w,o
# 0 "" 2
	.loc 1 701 7
	.loc 1 701 7
.LVL157:
#NO_APP
.LBB1222:
.LBB1223:
	.loc 2 37 2
.LBE1223:
.LBE1222:
	.loc 1 701 7 is_stmt 0
	slliw	a1,a1,5
.LVL158:
	slliw	a4,s1,10
	or	a4,a1,a4
	or	a4,a4,s0
	slliw	t2,t2,15
.LVL159:
	or	a4,a4,t2
	slliw	t0,t0,20
.LVL160:
	or	a4,a4,t0
.LBB1225:
.LBB1224:
	.loc 2 37 2
	addi	a5,a6,1288
#APP
# 37 "include/type.h" 1
	sw a4, 0(a5)
# 0 "" 2
.LVL161:
#NO_APP
.LBE1224:
.LBE1225:
	.loc 1 701 7 is_stmt 1
	.loc 1 701 7
.LBE1221:
	.loc 1 702 7
.LBB1226:
	.loc 1 702 7
#APP
# 702 "dram/sun20iw1p1/mctl_standby-sun8iw20.c" 1
	fence w,o
# 0 "" 2
	.loc 1 702 7
	.loc 1 702 7
.LVL162:
#NO_APP
.LBB1227:
.LBB1228:
	.loc 2 37 2
.LBE1228:
.LBE1227:
	.loc 1 702 7 is_stmt 0
	slliw	a3,a3,5
.LVL163:
	slliw	a5,t6,10
	or	a5,a3,a5
	or	a5,a5,t4
	slliw	t3,t3,15
.LVL164:
	or	a5,a5,t3
	slliw	t1,t1,20
.LVL165:
	or	a5,a5,t1
	slliw	a7,a7,25
.LVL166:
	or	a5,a5,a7
.LBB1230:
.LBB1229:
	.loc 2 37 2
	addi	a6,a6,1292
#APP
# 37 "include/type.h" 1
	sw a5, 0(a6)
# 0 "" 2
.LVL167:
#NO_APP
.LBE1229:
.LBE1230:
	.loc 1 702 7 is_stmt 1
	.loc 1 702 7
.LBE1226:
	.loc 1 703 7
.LBB1231:
	.loc 1 703 7
#APP
# 703 "dram/sun20iw1p1/mctl_standby-sun8iw20.c" 1
	fence w,o
# 0 "" 2
	.loc 1 703 7
	.loc 1 703 7
.LVL168:
#NO_APP
.LBB1232:
.LBB1233:
	.loc 2 37 2
.LBE1233:
.LBE1232:
	.loc 1 703 7 is_stmt 0
	ori	a0,a0,1
.LVL169:
.LBB1235:
.LBB1234:
	.loc 2 37 2
#APP
# 37 "include/type.h" 1
	sw a0, 0(t5)
# 0 "" 2
.LVL170:
#NO_APP
.LBE1234:
.LBE1235:
.LBE1231:
	.loc 1 713 2
	j	.L34
.LVL171:
	.align	2
.L42:
	lla	a2,.LANCHOR1
	extu	a4,a3,31,0
	add	a4,a2,a4
	lurbu	a6,a2,a3,0
	lbu	s9,8(a4)
	lbu	s8,16(a4)
	lbu	s7,24(a4)
	lbu	t5,32(a4)
	lbu	s5,40(a4)
	lbu	a2,48(a4)
	lbu	s6,56(a4)
	lbu	s4,64(a4)
	lbu	s3,72(a4)
	lbu	s2,80(a4)
	lbu	s0,88(a4)
	lbu	a1,96(a4)
	lbu	s1,104(a4)
	lbu	t4,112(a4)
	lbu	a3,120(a4)
	lbu	t6,128(a4)
	lbu	t3,136(a4)
	lbu	t1,144(a4)
	lbu	a7,152(a4)
	.loc 1 636 5
	li	t0,0
	li	t2,0
	j	.L35
.LVL172:
	.align	2
.L44:
	.loc 1 689 8 is_stmt 1
	.loc 1 690 7
.LBB1236:
	.loc 1 690 7
#APP
# 690 "dram/sun20iw1p1/mctl_standby-sun8iw20.c" 1
	fence w,o
# 0 "" 2
	.loc 1 690 7
	.loc 1 690 7
.LVL173:
#NO_APP
.LBB1237:
.LBB1238:
	.loc 2 37 2
	li	a4,315863040
	li	a5,51388416
	addiw	a3,a4,-1952
	addi	a2,a5,1280
#APP
# 37 "include/type.h" 1
	sw a3, 0(a2)
# 0 "" 2
.LVL174:
#NO_APP
.LBE1238:
.LBE1237:
	.loc 1 690 7
	.loc 1 690 7
.LBE1236:
	.loc 1 691 7
.LBB1239:
	.loc 1 691 7
#APP
# 691 "dram/sun20iw1p1/mctl_standby-sun8iw20.c" 1
	fence w,o
# 0 "" 2
	.loc 1 691 7
	.loc 1 691 7
.LVL175:
#NO_APP
.LBB1240:
.LBB1241:
	.loc 2 37 2
	li	a3,274862080
	addi	a1,a5,1284
	addiw	a3,a3,-2005
#APP
# 37 "include/type.h" 1
	sw a3, 0(a1)
# 0 "" 2
.LVL176:
#NO_APP
.LBE1241:
.LBE1240:
	.loc 1 691 7
	.loc 1 691 7
.LBE1239:
	.loc 1 692 7
.LBB1242:
	.loc 1 692 7
#APP
# 692 "dram/sun20iw1p1/mctl_standby-sun8iw20.c" 1
	fence w,o
# 0 "" 2
	.loc 1 692 7
	.loc 1 692 7
.LVL177:
#NO_APP
.LBB1243:
.LBB1244:
	.loc 2 37 2
	li	a3,389
	addi	a1,a5,1288
#APP
# 37 "include/type.h" 1
	sw a3, 0(a1)
# 0 "" 2
.LVL178:
#NO_APP
.LBE1244:
.LBE1243:
	.loc 1 692 7
	.loc 1 692 7
.LBE1242:
	.loc 1 693 7
.LBB1245:
	.loc 1 693 7
#APP
# 693 "dram/sun20iw1p1/mctl_standby-sun8iw20.c" 1
	fence w,o
# 0 "" 2
	.loc 1 693 7
	.loc 1 693 7
.LVL179:
#NO_APP
.LBB1246:
.LBB1247:
	.loc 2 37 2
	li	a3,594182144
	addi	a5,a5,1292
	addiw	a3,a3,52
#APP
# 37 "include/type.h" 1
	sw a3, 0(a5)
# 0 "" 2
.LVL180:
#NO_APP
.LBE1247:
.LBE1246:
	.loc 1 693 7
	.loc 1 693 7
.LBE1245:
	.loc 1 694 7
.LBB1248:
	.loc 1 694 7
#APP
# 694 "dram/sun20iw1p1/mctl_standby-sun8iw20.c" 1
	fence w,o
# 0 "" 2
	.loc 1 694 7
	.loc 1 694 7
.LVL181:
#NO_APP
.LBB1249:
.LBB1250:
	.loc 2 37 2
	addiw	a4,a4,-1951
#APP
# 37 "include/type.h" 1
	sw a4, 0(a2)
# 0 "" 2
#NO_APP
	j	.L34
.LBE1250:
.LBE1249:
.LBE1248:
	.cfi_endproc
.LFE19:
	.size	mctl_phy_ac_remapping_standby, .-mctl_phy_ac_remapping_standby
	.align	1
	.align	4
	.globl	mctl_vrefzq_init_standby
	.type	mctl_vrefzq_init_standby, @function
mctl_vrefzq_init_standby:
.LFB21:
	.loc 1 1038 1
	.cfi_startproc
.LVL182:
	.loc 1 1039 2
	.loc 1 1041 5
	.loc 1 1041 8 is_stmt 0
	lw	a5,92(a0)
	.loc 1 1041 7
	slli	a4,a5,46
	bltz	a4,.L45
	.loc 1 1043 3 is_stmt 1
.LBB1271:
	.loc 1 1043 11
	.loc 1 1043 11
	.loc 1 1043 11
	.loc 1 1043 11
.LVL183:
.LBB1272:
.LBB1273:
	.loc 2 58 2
	.loc 2 60 2
	li	a4,51392512
	addi	a3,a4,272
#APP
# 60 "include/type.h" 1
	lw a1, 0(a3)
# 0 "" 2
.LVL184:
	.loc 2 61 2
#NO_APP
.LBE1273:
.LBE1272:
	.loc 1 1043 11
#APP
# 1043 "dram/sun20iw1p1/mctl_standby-sun8iw20.c" 1
	fence i,r
# 0 "" 2
	.loc 1 1043 11
	.loc 1 1043 11
.LVL185:
#NO_APP
.LBE1271:
	.loc 1 1044 3
	.loc 1 1044 11 is_stmt 0
	li	a5,-2139062272
	.loc 1 1045 11
	lw	a2,60(a0)
	.loc 1 1044 11
	addiw	a5,a5,128
	and	a5,a5,a1
.LVL186:
	.loc 1 1045 3 is_stmt 1
	.loc 1 1045 11 is_stmt 0
	or	a5,a5,a2
.LVL187:
	.loc 1 1046 3 is_stmt 1
.LBB1274:
	.loc 1 1046 3
#APP
# 1046 "dram/sun20iw1p1/mctl_standby-sun8iw20.c" 1
	fence w,o
# 0 "" 2
	.loc 1 1046 3
	.loc 1 1046 3
.LVL188:
#NO_APP
.LBB1275:
.LBB1276:
	.loc 2 37 2
#APP
# 37 "include/type.h" 1
	sw a5, 0(a3)
# 0 "" 2
.LVL189:
#NO_APP
.LBE1276:
.LBE1275:
	.loc 1 1046 3
	.loc 1 1046 3
.LBE1274:
	.loc 1 1048 6
	.loc 1 1048 9 is_stmt 0
	lw	a5,92(a0)
.LVL190:
	.loc 1 1048 8
	slli	a3,a5,47
	bltz	a3,.L45
.LVL191:
.LBB1277:
.LBB1278:
	.loc 1 1050 4 is_stmt 1
.LBB1279:
	.loc 1 1050 12
	.loc 1 1050 12
	.loc 1 1050 12
	.loc 1 1050 12
.LBB1280:
.LBB1281:
	.loc 2 58 2
	.loc 2 60 2
	addi	a4,a4,276
#APP
# 60 "include/type.h" 1
	lw a3, 0(a4)
# 0 "" 2
.LVL192:
	.loc 2 61 2
#NO_APP
.LBE1281:
.LBE1280:
	.loc 1 1050 12
#APP
# 1050 "dram/sun20iw1p1/mctl_standby-sun8iw20.c" 1
	fence i,r
# 0 "" 2
	.loc 1 1050 12
	.loc 1 1050 12
.LVL193:
#NO_APP
.LBE1279:
	.loc 1 1051 4
	.loc 1 1052 32 is_stmt 0
	lw	a5,64(a0)
	.loc 1 1051 12
	andi	a3,a3,-128
.LVL194:
	sext.w	a3,a3
.LVL195:
	.loc 1 1052 4 is_stmt 1
	.loc 1 1052 32 is_stmt 0
	andi	a5,a5,127
	.loc 1 1052 12
	or	a5,a5,a3
.LVL196:
	.loc 1 1053 4 is_stmt 1
.LBB1282:
	.loc 1 1053 4
#APP
# 1053 "dram/sun20iw1p1/mctl_standby-sun8iw20.c" 1
	fence w,o
# 0 "" 2
	.loc 1 1053 4
	.loc 1 1053 4
.LVL197:
#NO_APP
.LBB1283:
.LBB1284:
	.loc 2 37 2
#APP
# 37 "include/type.h" 1
	sw a5, 0(a4)
# 0 "" 2
#NO_APP
.LBE1284:
.LBE1283:
	.loc 1 1053 4
	.loc 1 1053 4
.LBE1282:
.LBE1278:
.LBE1277:
	.loc 1 1053 4
	.loc 1 1053 4
.LVL198:
.L45:
	.loc 1 1056 1 is_stmt 0
	ret
	.cfi_endproc
.LFE21:
	.size	mctl_vrefzq_init_standby, .-mctl_vrefzq_init_standby
	.align	1
	.align	4
	.globl	mctl_core_init_standby
	.type	mctl_core_init_standby, @function
mctl_core_init_standby:
.LFB22:
	.loc 1 1063 1 is_stmt 1
	.cfi_startproc
.LVL199:
	.loc 1 1064 2
	.loc 1 1065 2
	.loc 1 1063 1 is_stmt 0
	addi	sp,sp,-64
	.cfi_def_cfa_offset 64
	sdd	s4,s5,(sp),2,4
	.cfi_offset 20, -32
	.cfi_offset 21, -24
.LBB1651:
.LBB1652:
.LBB1653:
.LBB1654:
.LBB1655:
	.loc 2 60 2
	li	s4,33558528
.LBE1655:
.LBE1654:
.LBE1653:
.LBE1652:
.LBE1651:
	.loc 1 1063 1
	sdd	s0,s1,(sp),0,4
	sd	ra,56(sp)
	sd	s6,48(sp)
	sdd	s2,s3,(sp),1,4
	.cfi_offset 8, -64
	.cfi_offset 9, -56
	.cfi_offset 1, -8
	.cfi_offset 22, -16
	.cfi_offset 18, -48
	.cfi_offset 19, -40
.LBB1793:
.LBB1782:
.LBB1660:
.LBB1658:
.LBB1656:
	.loc 2 60 2
	addi	s4,s4,1344
.LBE1656:
.LBE1658:
.LBE1660:
.LBE1782:
.LBE1793:
	.loc 1 1063 1
	mv	s0,a0
.LVL200:
.LBB1794:
.LBB1783:
	.loc 1 495 2 is_stmt 1
	.loc 1 496 2
	.loc 1 502 2
.LBB1661:
	.loc 1 502 12
	.loc 1 502 12
	.loc 1 502 12
	.loc 1 502 12
.LBB1659:
.LBB1657:
	.loc 2 58 2
	.loc 2 60 2
#APP
# 60 "include/type.h" 1
	lw a4, 0(s4)
# 0 "" 2
.LVL201:
	.loc 2 61 2
#NO_APP
.LBE1657:
.LBE1659:
	.loc 1 502 12
#APP
# 502 "dram/sun20iw1p1/mctl_standby-sun8iw20.c" 1
	fence i,r
# 0 "" 2
	.loc 1 502 12
	.loc 1 502 12
.LVL202:
#NO_APP
.LBE1661:
	.loc 1 503 2
	.loc 1 504 2
.LBB1662:
	.loc 1 504 2
#APP
# 504 "dram/sun20iw1p1/mctl_standby-sun8iw20.c" 1
	fence w,o
# 0 "" 2
	.loc 1 504 2
	.loc 1 504 2
.LVL203:
#NO_APP
.LBB1663:
.LBB1664:
	.loc 2 37 2
.LBE1664:
.LBE1663:
.LBE1662:
	.loc 1 503 10 is_stmt 0
	li	a5,-1073741824
	addi	a5,a5,-1
	and	a4,a5,a4
.LVL204:
.LBB1667:
.LBB1666:
.LBB1665:
	.loc 2 37 2
#APP
# 37 "include/type.h" 1
	sw a4, 0(s4)
# 0 "" 2
.LVL205:
#NO_APP
.LBE1665:
.LBE1666:
	.loc 1 504 2 is_stmt 1
	.loc 1 504 2
.LBE1667:
	.loc 1 506 2
.LBB1668:
	.loc 1 506 12
	.loc 1 506 12
	.loc 1 506 12
	.loc 1 506 12
.LBB1669:
.LBB1670:
	.loc 2 58 2
	.loc 2 60 2
	li	s1,33562624
	addi	s3,s1,-2036
#APP
# 60 "include/type.h" 1
	lw a4, 0(s3)
# 0 "" 2
.LVL206:
	.loc 2 61 2
#NO_APP
.LBE1670:
.LBE1669:
	.loc 1 506 12
#APP
# 506 "dram/sun20iw1p1/mctl_standby-sun8iw20.c" 1
	fence i,r
# 0 "" 2
	.loc 1 506 12
	.loc 1 506 12
.LVL207:
#NO_APP
.LBE1668:
	.loc 1 507 2
	.loc 1 508 2
.LBB1671:
	.loc 1 508 2
#APP
# 508 "dram/sun20iw1p1/mctl_standby-sun8iw20.c" 1
	fence w,o
# 0 "" 2
	.loc 1 508 2
	.loc 1 508 2
.LVL208:
#NO_APP
.LBB1672:
.LBB1673:
	.loc 2 37 2
.LBE1673:
.LBE1672:
.LBE1671:
	.loc 1 507 10 is_stmt 0
	andi	a4,a4,-2
.LVL209:
.LBB1676:
.LBB1675:
.LBB1674:
	.loc 2 37 2
#APP
# 37 "include/type.h" 1
	sw a4, 0(s3)
# 0 "" 2
.LVL210:
#NO_APP
.LBE1674:
.LBE1675:
	.loc 1 508 2 is_stmt 1
	.loc 1 508 2
.LBE1676:
	.loc 1 510 2
.LBB1677:
	.loc 1 510 12
	.loc 1 510 12
	.loc 1 510 12
	.loc 1 510 12
.LBB1678:
.LBB1679:
	.loc 2 58 2
	.loc 2 60 2
#APP
# 60 "include/type.h" 1
	lw a3, 0(s3)
# 0 "" 2
.LVL211:
	.loc 2 61 2
#NO_APP
.LBE1679:
.LBE1678:
	.loc 1 510 12
#APP
# 510 "dram/sun20iw1p1/mctl_standby-sun8iw20.c" 1
	fence i,r
# 0 "" 2
	.loc 1 510 12
	.loc 1 510 12
.LVL212:
#NO_APP
.LBE1677:
	.loc 1 511 2
	.loc 1 512 2
.LBB1680:
	.loc 1 512 2
#APP
# 512 "dram/sun20iw1p1/mctl_standby-sun8iw20.c" 1
	fence w,o
# 0 "" 2
	.loc 1 512 2
	.loc 1 512 2
.LVL213:
#NO_APP
.LBB1681:
.LBB1682:
	.loc 2 37 2
.LBE1682:
.LBE1681:
.LBE1680:
	.loc 1 511 10 is_stmt 0
	li	a4,-65536
	addi	a4,a4,-1
	and	a4,a4,a3
.LBB1685:
.LBB1684:
.LBB1683:
	.loc 2 37 2
#APP
# 37 "include/type.h" 1
	sw a4, 0(s3)
# 0 "" 2
.LVL214:
#NO_APP
.LBE1683:
.LBE1684:
	.loc 1 512 2 is_stmt 1
	.loc 1 512 2
.LBE1685:
	.loc 1 515 2
.LBB1686:
	.loc 1 515 12
	.loc 1 515 12
	.loc 1 515 12
	.loc 1 515 12
.LBB1687:
.LBB1688:
	.loc 2 58 2
	.loc 2 60 2
	addi	s1,s1,-2048
#APP
# 60 "include/type.h" 1
	lw a4, 0(s1)
# 0 "" 2
.LVL215:
	.loc 2 61 2
#NO_APP
.LBE1688:
.LBE1687:
	.loc 1 515 12
#APP
# 515 "dram/sun20iw1p1/mctl_standby-sun8iw20.c" 1
	fence i,r
# 0 "" 2
	.loc 1 515 12
	.loc 1 515 12
.LVL216:
#NO_APP
.LBE1686:
	.loc 1 516 2
	.loc 1 517 2
.LBB1689:
	.loc 1 517 2
#APP
# 517 "dram/sun20iw1p1/mctl_standby-sun8iw20.c" 1
	fence w,o
# 0 "" 2
	.loc 1 517 2
	.loc 1 517 2
.LVL217:
#NO_APP
.LBB1690:
.LBB1691:
	.loc 2 37 2
.LBE1691:
.LBE1690:
.LBE1689:
	.loc 1 516 10 is_stmt 0
	and	a5,a5,a4
.LBB1694:
.LBB1693:
.LBB1692:
	.loc 2 37 2
#APP
# 37 "include/type.h" 1
	sw a5, 0(s1)
# 0 "" 2
.LVL218:
#NO_APP
.LBE1692:
.LBE1693:
	.loc 1 517 2 is_stmt 1
	.loc 1 517 2
.LBE1694:
	.loc 1 519 2
.LBB1695:
	.loc 1 519 12
	.loc 1 519 12
	.loc 1 519 12
	.loc 1 519 12
.LBB1696:
.LBB1697:
	.loc 2 58 2
	.loc 2 60 2
#APP
# 60 "include/type.h" 1
	lw a5, 0(s1)
# 0 "" 2
.LVL219:
	.loc 2 61 2
#NO_APP
.LBE1697:
.LBE1696:
	.loc 1 519 12
#APP
# 519 "dram/sun20iw1p1/mctl_standby-sun8iw20.c" 1
	fence i,r
# 0 "" 2
	.loc 1 519 12
	.loc 1 519 12
.LVL220:
#NO_APP
.LBE1695:
	.loc 1 520 2
	.loc 1 521 2
.LBB1698:
	.loc 1 521 2
#APP
# 521 "dram/sun20iw1p1/mctl_standby-sun8iw20.c" 1
	fence w,o
# 0 "" 2
	.loc 1 521 2
	.loc 1 521 2
.LVL221:
#NO_APP
.LBB1699:
.LBB1700:
	.loc 2 37 2
.LBE1700:
.LBE1699:
.LBE1698:
	.loc 1 520 10 is_stmt 0
	extu	a5,a5,0+31-1,0
.LVL222:
.LBB1703:
.LBB1702:
.LBB1701:
	.loc 2 37 2
#APP
# 37 "include/type.h" 1
	sw a5, 0(s1)
# 0 "" 2
.LVL223:
#NO_APP
.LBE1701:
.LBE1702:
	.loc 1 521 2 is_stmt 1
	.loc 1 521 2
.LBE1703:
	.loc 1 523 2
.LBB1704:
	.loc 1 523 12
	.loc 1 523 12
	.loc 1 523 12
	.loc 1 523 12
.LBB1705:
.LBB1706:
	.loc 2 58 2
	.loc 2 60 2
#APP
# 60 "include/type.h" 1
	lw a4, 0(s1)
# 0 "" 2
.LVL224:
	.loc 2 61 2
#NO_APP
.LBE1706:
.LBE1705:
	.loc 1 523 12
#APP
# 523 "dram/sun20iw1p1/mctl_standby-sun8iw20.c" 1
	fence i,r
# 0 "" 2
	.loc 1 523 12
	.loc 1 523 12
.LVL225:
#NO_APP
.LBE1704:
	.loc 1 524 2
	.loc 1 525 2
.LBB1707:
	.loc 1 525 2
#APP
# 525 "dram/sun20iw1p1/mctl_standby-sun8iw20.c" 1
	fence w,o
# 0 "" 2
	.loc 1 525 2
	.loc 1 525 2
.LVL226:
#NO_APP
.LBB1708:
.LBB1709:
	.loc 2 37 2
.LBE1709:
.LBE1708:
.LBE1707:
	.loc 1 524 10 is_stmt 0
	li	s6,134217728
	or	a4,a4,s6
.LVL227:
.LBB1712:
.LBB1711:
.LBB1710:
	.loc 2 37 2
#APP
# 37 "include/type.h" 1
	sw a4, 0(s1)
# 0 "" 2
.LVL228:
#NO_APP
.LBE1710:
.LBE1711:
	.loc 1 525 2 is_stmt 1
	.loc 1 525 2
.LBE1712:
	.loc 1 526 2
.LBE1783:
.LBE1794:
	.loc 1 36 2
	.loc 1 37 2
	.loc 1 37 13
.LBB1795:
.LBB1784:
	.loc 1 529 2
	.loc 1 529 12 is_stmt 0
	li	a0,0
.LVL229:
	mv	a1,s0
	call	ccm_set_pll_ddr_clk_stb
.LVL230:
	.loc 1 530 2 is_stmt 1
	.loc 1 530 27 is_stmt 0
	srliw	a0,a0,1
.LVL231:
	.loc 1 530 17
	sw	a0,0(s0)
	.loc 1 531 43 is_stmt 1
	.loc 1 532 2
.LVL232:
.LBE1784:
.LBE1795:
	.loc 1 36 2
	.loc 1 37 2
	.loc 1 37 13
.LBB1796:
.LBB1785:
	.loc 1 535 2
.LBE1785:
.LBE1796:
	.loc 1 72 2
.LBB1797:
.LBB1786:
.LBB1713:
.LBB1714:
	.loc 1 72 2
#APP
# 72 "dram/sun20iw1p1/mctl_standby-sun8iw20.c" 1
	fence w,o
# 0 "" 2
	.loc 1 72 2
	.loc 1 72 2
.LVL233:
#NO_APP
.LBB1715:
.LBB1716:
	.loc 2 37 2
	li	s2,51388416
	li	s5,0
	addi	a5,s2,32
#APP
# 37 "include/type.h" 1
	sw s5, 0(a5)
# 0 "" 2
.LVL234:
#NO_APP
.LBE1716:
.LBE1715:
	.loc 1 72 2
	.loc 1 72 2
.LBE1714:
.LBE1713:
.LBE1786:
.LBE1797:
	.loc 1 73 2
.LBB1798:
.LBB1787:
.LBB1723:
.LBB1717:
	.loc 1 73 2
#APP
# 73 "dram/sun20iw1p1/mctl_standby-sun8iw20.c" 1
	fence w,o
# 0 "" 2
	.loc 1 73 2
	.loc 1 73 2
.LVL235:
#NO_APP
.LBB1718:
.LBB1719:
	.loc 2 37 2
	addi	a5,s2,36
#APP
# 37 "include/type.h" 1
	sw s5, 0(a5)
# 0 "" 2
.LVL236:
#NO_APP
.LBE1719:
.LBE1718:
	.loc 1 73 2
	.loc 1 73 2
.LBE1717:
.LBE1723:
.LBE1787:
.LBE1798:
	.loc 1 74 2
.LBB1799:
.LBB1788:
.LBB1724:
.LBB1720:
	.loc 1 74 2
#APP
# 74 "dram/sun20iw1p1/mctl_standby-sun8iw20.c" 1
	fence w,o
# 0 "" 2
	.loc 1 74 2
	.loc 1 74 2
.LVL237:
#NO_APP
.LBB1721:
.LBB1722:
	.loc 2 37 2
	addi	a5,s2,40
#APP
# 37 "include/type.h" 1
	sw s5, 0(a5)
# 0 "" 2
.LVL238:
#NO_APP
.LBE1722:
.LBE1721:
	.loc 1 74 2
	.loc 1 74 2
.LBE1720:
.LBE1724:
.LBE1788:
.LBE1799:
	.loc 1 75 2
	.loc 1 47 2
	.loc 1 48 2
	.loc 1 48 13
.LBB1800:
.LBB1789:
	.loc 1 538 2
.LBB1725:
	.loc 1 538 12
	.loc 1 538 12
	.loc 1 538 12
	.loc 1 538 12
.LBB1726:
.LBB1727:
	.loc 2 58 2
	.loc 2 60 2
#APP
# 60 "include/type.h" 1
	lw a4, 0(s3)
# 0 "" 2
.LVL239:
	.loc 2 61 2
#NO_APP
.LBE1727:
.LBE1726:
	.loc 1 538 12
#APP
# 538 "dram/sun20iw1p1/mctl_standby-sun8iw20.c" 1
	fence i,r
# 0 "" 2
	.loc 1 538 12
	.loc 1 538 12
.LVL240:
#NO_APP
.LBE1725:
	.loc 1 539 2
	.loc 1 540 2
.LBB1728:
	.loc 1 540 2
#APP
# 540 "dram/sun20iw1p1/mctl_standby-sun8iw20.c" 1
	fence w,o
# 0 "" 2
	.loc 1 540 2
	.loc 1 540 2
.LVL241:
#NO_APP
.LBB1729:
.LBB1730:
	.loc 2 37 2
.LBE1730:
.LBE1729:
.LBE1728:
	.loc 1 539 10 is_stmt 0
	li	a5,65536
	or	a4,a4,a5
.LVL242:
.LBB1733:
.LBB1732:
.LBB1731:
	.loc 2 37 2
#APP
# 37 "include/type.h" 1
	sw a4, 0(s3)
# 0 "" 2
.LVL243:
#NO_APP
.LBE1731:
.LBE1732:
	.loc 1 540 2 is_stmt 1
	.loc 1 540 2
.LBE1733:
	.loc 1 542 2
.LBB1734:
	.loc 1 542 12
	.loc 1 542 12
	.loc 1 542 12
	.loc 1 542 12
.LBB1735:
.LBB1736:
	.loc 2 58 2
	.loc 2 60 2
#APP
# 60 "include/type.h" 1
	lw a3, 0(s4)
# 0 "" 2
.LVL244:
	.loc 2 61 2
#NO_APP
.LBE1736:
.LBE1735:
	.loc 1 542 12
#APP
# 542 "dram/sun20iw1p1/mctl_standby-sun8iw20.c" 1
	fence i,r
# 0 "" 2
	.loc 1 542 12
	.loc 1 542 12
.LVL245:
#NO_APP
.LBE1734:
	.loc 1 543 2
	.loc 1 544 2
.LBB1737:
	.loc 1 544 2
#APP
# 544 "dram/sun20iw1p1/mctl_standby-sun8iw20.c" 1
	fence w,o
# 0 "" 2
	.loc 1 544 2
	.loc 1 544 2
.LVL246:
#NO_APP
.LBB1738:
.LBB1739:
	.loc 2 37 2
.LBE1739:
.LBE1738:
.LBE1737:
	.loc 1 543 10 is_stmt 0
	li	a5,1073741824
	or	a3,a3,a5
.LVL247:
.LBB1742:
.LBB1741:
.LBB1740:
	.loc 2 37 2
#APP
# 37 "include/type.h" 1
	sw a3, 0(s4)
# 0 "" 2
.LVL248:
#NO_APP
.LBE1740:
.LBE1741:
	.loc 1 544 2 is_stmt 1
	.loc 1 544 2
.LBE1742:
	.loc 1 547 2
.LBB1743:
	.loc 1 547 12
	.loc 1 547 12
	.loc 1 547 12
	.loc 1 547 12
.LBB1744:
.LBB1745:
	.loc 2 58 2
	.loc 2 60 2
#APP
# 60 "include/type.h" 1
	lw a4, 0(s1)
# 0 "" 2
.LVL249:
	.loc 2 61 2
#NO_APP
.LBE1745:
.LBE1744:
	.loc 1 547 12
#APP
# 547 "dram/sun20iw1p1/mctl_standby-sun8iw20.c" 1
	fence i,r
# 0 "" 2
	.loc 1 547 12
	.loc 1 547 12
.LVL250:
#NO_APP
.LBE1743:
	.loc 1 548 2
	.loc 1 549 2
.LBB1746:
	.loc 1 549 2
#APP
# 549 "dram/sun20iw1p1/mctl_standby-sun8iw20.c" 1
	fence w,o
# 0 "" 2
	.loc 1 549 2
	.loc 1 549 2
.LVL251:
#NO_APP
.LBB1747:
.LBB1748:
	.loc 2 37 2
.LBE1748:
.LBE1747:
.LBE1746:
	.loc 1 548 10 is_stmt 0
	or	a4,a4,a5
.LVL252:
.LBB1751:
.LBB1750:
.LBB1749:
	.loc 2 37 2
#APP
# 37 "include/type.h" 1
	sw a4, 0(s1)
# 0 "" 2
.LVL253:
#NO_APP
.LBE1749:
.LBE1750:
	.loc 1 549 2 is_stmt 1
	.loc 1 549 2
.LBE1751:
	.loc 1 550 2
.LBE1789:
.LBE1800:
	.loc 1 36 2
	.loc 1 37 2
	.loc 1 37 13
.LBB1801:
.LBB1790:
	.loc 1 553 2
.LBB1752:
	.loc 1 553 12
	.loc 1 553 12
	.loc 1 553 12
	.loc 1 553 12
.LBB1753:
.LBB1754:
	.loc 2 58 2
	.loc 2 60 2
#APP
# 60 "include/type.h" 1
	lw a4, 0(s3)
# 0 "" 2
.LVL254:
	.loc 2 61 2
#NO_APP
.LBE1754:
.LBE1753:
	.loc 1 553 12
#APP
# 553 "dram/sun20iw1p1/mctl_standby-sun8iw20.c" 1
	fence i,r
# 0 "" 2
	.loc 1 553 12
	.loc 1 553 12
.LVL255:
#NO_APP
.LBE1752:
	.loc 1 554 2
	.loc 1 555 2
.LBB1755:
	.loc 1 555 2
#APP
# 555 "dram/sun20iw1p1/mctl_standby-sun8iw20.c" 1
	fence w,o
# 0 "" 2
	.loc 1 555 2
	.loc 1 555 2
.LVL256:
#NO_APP
.LBB1756:
.LBB1757:
	.loc 2 37 2
.LBE1757:
.LBE1756:
.LBE1755:
	.loc 1 554 10 is_stmt 0
	ori	a4,a4,1
.LVL257:
.LBB1760:
.LBB1759:
.LBB1758:
	.loc 2 37 2
#APP
# 37 "include/type.h" 1
	sw a4, 0(s3)
# 0 "" 2
.LVL258:
#NO_APP
.LBE1758:
.LBE1759:
	.loc 1 555 2 is_stmt 1
	.loc 1 555 2
.LBE1760:
	.loc 1 562 2
.LBB1761:
	.loc 1 562 12
	.loc 1 562 12
	.loc 1 562 12
	.loc 1 562 12
.LBB1762:
.LBB1763:
	.loc 2 58 2
	.loc 2 60 2
#APP
# 60 "include/type.h" 1
	lw a4, 0(s1)
# 0 "" 2
.LVL259:
	.loc 2 61 2
#NO_APP
.LBE1763:
.LBE1762:
	.loc 1 562 12
#APP
# 562 "dram/sun20iw1p1/mctl_standby-sun8iw20.c" 1
	fence i,r
# 0 "" 2
	.loc 1 562 12
	.loc 1 562 12
.LVL260:
#NO_APP
.LBE1761:
	.loc 1 563 2
	.loc 1 564 2
.LBB1764:
	.loc 1 564 2
#APP
# 564 "dram/sun20iw1p1/mctl_standby-sun8iw20.c" 1
	fence w,o
# 0 "" 2
	.loc 1 564 2
	.loc 1 564 2
.LVL261:
#NO_APP
.LBB1765:
.LBB1766:
	.loc 2 37 2
.LBE1766:
.LBE1765:
.LBE1764:
	.loc 1 563 10 is_stmt 0
	li	a5,-2147483648
	or	a4,a4,a5
.LVL262:
.LBB1769:
.LBB1768:
.LBB1767:
	.loc 2 37 2
#APP
# 37 "include/type.h" 1
	sw a4, 0(s1)
# 0 "" 2
.LVL263:
#NO_APP
.LBE1767:
.LBE1768:
	.loc 1 564 2 is_stmt 1
	.loc 1 564 2
.LBE1769:
	.loc 1 566 2
.LBB1770:
	.loc 1 566 12
	.loc 1 566 12
	.loc 1 566 12
	.loc 1 566 12
.LBB1771:
.LBB1772:
	.loc 2 58 2
	.loc 2 60 2
#APP
# 60 "include/type.h" 1
	lw a5, 0(s1)
# 0 "" 2
.LVL264:
	.loc 2 61 2
#NO_APP
.LBE1772:
.LBE1771:
	.loc 1 566 12
#APP
# 566 "dram/sun20iw1p1/mctl_standby-sun8iw20.c" 1
	fence i,r
# 0 "" 2
	.loc 1 566 12
	.loc 1 566 12
.LVL265:
#NO_APP
.LBE1770:
	.loc 1 567 2
	.loc 1 568 2
.LBB1773:
	.loc 1 568 2
#APP
# 568 "dram/sun20iw1p1/mctl_standby-sun8iw20.c" 1
	fence w,o
# 0 "" 2
	.loc 1 568 2
	.loc 1 568 2
.LVL266:
#NO_APP
.LBB1774:
.LBB1775:
	.loc 2 37 2
.LBE1775:
.LBE1774:
.LBE1773:
	.loc 1 567 10 is_stmt 0
	or	a5,a5,s6
.LVL267:
.LBB1778:
.LBB1777:
.LBB1776:
	.loc 2 37 2
#APP
# 37 "include/type.h" 1
	sw a5, 0(s1)
# 0 "" 2
.LVL268:
#NO_APP
.LBE1776:
.LBE1777:
	.loc 1 568 2 is_stmt 1
	.loc 1 568 2
.LBE1778:
	.loc 1 569 2
.LBE1790:
.LBE1801:
	.loc 1 36 2
	.loc 1 37 2
	.loc 1 37 13
.LBB1802:
.LBB1791:
	.loc 1 571 2
.LBB1779:
	.loc 1 571 2
#APP
# 571 "dram/sun20iw1p1/mctl_standby-sun8iw20.c" 1
	fence w,o
# 0 "" 2
	.loc 1 571 2
	.loc 1 571 2
.LVL269:
#NO_APP
.LBB1780:
.LBB1781:
	.loc 2 37 2
	li	s3,51392512
	addi	a4,s3,12
	li	a5,32768
#APP
# 37 "include/type.h" 1
	sw a5, 0(a4)
# 0 "" 2
.LVL270:
#NO_APP
.LBE1781:
.LBE1780:
	.loc 1 571 2
	.loc 1 571 2
.LBE1779:
	.loc 1 572 2
.LBE1791:
.LBE1802:
	.loc 1 36 2
	.loc 1 37 2
	.loc 1 37 13
.LBB1803:
.LBB1792:
	.loc 1 573 2
.LBE1792:
.LBE1803:
	.loc 1 1066 2
	mv	a0,s0
	call	mctl_vrefzq_init_standby
.LVL271:
	.loc 1 1067 2
.LBB1804:
.LBB1805:
	.loc 1 583 2
	.loc 1 584 2
.LBB1806:
	.loc 1 584 2
#APP
# 584 "dram/sun20iw1p1/mctl_standby-sun8iw20.c" 1
	fence w,o
# 0 "" 2
	.loc 1 584 2
	.loc 1 584 2
.LVL272:
#NO_APP
.LBB1807:
.LBB1808:
	.loc 2 37 2
.LBE1808:
.LBE1807:
	.loc 1 584 2 is_stmt 0
	lla	s1,.LANCHOR0
.LBB1810:
.LBB1809:
	.loc 2 37 2
	lw	a5,0(s1)
#APP
# 37 "include/type.h" 1
	sw a5, 0(s2)
# 0 "" 2
.LVL273:
#NO_APP
.LBE1809:
.LBE1810:
	.loc 1 584 2 is_stmt 1
	.loc 1 584 2
.LBE1806:
	.loc 1 585 2
.LBB1811:
	.loc 1 585 2
#APP
# 585 "dram/sun20iw1p1/mctl_standby-sun8iw20.c" 1
	fence w,o
# 0 "" 2
	.loc 1 585 2
	.loc 1 585 2
.LVL274:
#NO_APP
.LBB1812:
.LBB1813:
	.loc 2 37 2
	lw	a5,4(s1)
	addi	a4,s2,4
#APP
# 37 "include/type.h" 1
	sw a5, 0(a4)
# 0 "" 2
.LVL275:
#NO_APP
.LBE1813:
.LBE1812:
	.loc 1 585 2
	.loc 1 585 2
.LBE1811:
	.loc 1 587 2
.LBB1814:
	.loc 1 587 13
	.loc 1 587 13
	.loc 1 587 13
	.loc 1 587 13
.LBB1815:
.LBB1816:
	.loc 2 58 2
	.loc 2 60 2
#APP
# 60 "include/type.h" 1
	lw s2, 0(s2)
# 0 "" 2
.LVL276:
	.loc 2 61 2
#NO_APP
.LBE1816:
.LBE1815:
	.loc 1 587 13
#APP
# 587 "dram/sun20iw1p1/mctl_standby-sun8iw20.c" 1
	fence i,r
# 0 "" 2
	.loc 1 587 13
	.loc 1 587 13
.LVL277:
#NO_APP
.LBE1814:
	.loc 1 588 2
	.loc 1 591 11 is_stmt 0
	li	a4,513
	.loc 1 588 5
	andi	s2,s2,1
.LVL278:
	.loc 1 591 11
	li	a5,771
	mveqz	a5, a4, s2
	mv	s2,a5
.LVL279:
	.loc 1 592 2 is_stmt 1
.LBB1817:
	.loc 1 592 2
#APP
# 592 "dram/sun20iw1p1/mctl_standby-sun8iw20.c" 1
	fence w,o
# 0 "" 2
	.loc 1 592 2
	.loc 1 592 2
.LVL280:
#NO_APP
.LBB1818:
.LBB1819:
	.loc 2 37 2
	addi	a5,s3,288
#APP
# 37 "include/type.h" 1
	sw s2, 0(a5)
# 0 "" 2
.LVL281:
#NO_APP
.LBE1819:
.LBE1818:
	.loc 1 592 2
	.loc 1 592 2
.LBE1817:
	.loc 1 594 2
	.loc 1 594 22 is_stmt 0
	lw	a5,20(s0)
	.loc 1 594 4
	andi	a5,a5,1
	beqz	a5,.L51
	.loc 1 596 3 is_stmt 1
.LBB1820:
	.loc 1 596 3
#APP
# 596 "dram/sun20iw1p1/mctl_standby-sun8iw20.c" 1
	fence w,o
# 0 "" 2
	.loc 1 596 3
	.loc 1 596 3
.LVL282:
#NO_APP
.LBB1821:
.LBB1822:
	.loc 2 37 2
	addi	s3,s3,964
#APP
# 37 "include/type.h" 1
	sw s5, 0(s3)
# 0 "" 2
.LVL283:
#NO_APP
.L51:
.LBE1822:
.LBE1821:
	.loc 1 596 3
	.loc 1 596 3
.LBE1820:
.LBE1805:
.LBE1804:
	.loc 1 1068 2
	mv	a0,s0
	call	mctl_phy_ac_remapping_standby
.LVL284:
	.loc 1 1069 2
.LBB1823:
.LBB1824:
	.loc 1 337 2
	.loc 1 338 2
	.loc 1 339 2
	.loc 1 340 2
	.loc 1 341 2
	.loc 1 342 2
	.loc 1 342 7 is_stmt 0
	lwd	a5,a4,(s0),0,3
.LVL285:
	.loc 1 343 2 is_stmt 1
	.loc 1 344 4 is_stmt 0
	li	a3,3
	.loc 1 343 12
	srliw	a5,a5,1
.LVL286:
	.loc 1 344 2 is_stmt 1
	.loc 1 344 4 is_stmt 0
	beq	a4,a3,.L94
	.loc 1 349 7 is_stmt 1
	.loc 1 349 9 is_stmt 0
	li	a3,2
	beq	a4,a3,.L95
	.loc 1 356 3 is_stmt 1
.LVL287:
.LBB1825:
.LBB1826:
	.loc 1 326 2
	.loc 1 327 2
	.loc 1 327 19 is_stmt 0
	li	a1,4096
	addiw	a1,a1,-196
	mulw	a1,a5,a1
	.loc 1 327 52
	li	a2,1000
.LBE1826:
.LBE1825:
.LBB1830:
.LBB1831:
	.loc 1 327 19
	li	a4,210
.LVL288:
.L93:
	mulw	a5,a4,a5
.LVL289:
.LBE1831:
.LBE1830:
.LBB1835:
.LBB1827:
	.loc 1 327 70
	remuw	a4,a1,a2
.LBE1827:
.LBE1835:
.LBB1836:
.LBB1832:
	remuw	a3,a5,a2
.LBE1832:
.LBE1836:
.LBB1837:
.LBB1828:
	snez	a4,a4
	.loc 1 327 25
	divuw	a1,a1,a2
.LBE1828:
.LBE1837:
.LBB1838:
.LBB1833:
	.loc 1 327 70
	snez	a3,a3
	.loc 1 327 25
	divuw	a5,a5,a2
.LBE1833:
.LBE1838:
.LBB1839:
.LBB1829:
	.loc 1 327 8
	addw	a4,a4,a1
.LVL290:
	.loc 1 328 2 is_stmt 1
.LBE1829:
.LBE1839:
	.loc 1 357 3
.LBB1840:
.LBB1834:
	.loc 1 326 2
	.loc 1 327 2
	.loc 1 327 8 is_stmt 0
	addw	a2,a3,a5
.LVL291:
	.loc 1 328 2 is_stmt 1
.LBE1834:
.LBE1840:
	.loc 1 359 2
	.loc 1 359 52 is_stmt 0
	andi	a3,a4,31
	snez	a3,a3
	.loc 1 359 17
	srliw	a4,a4,5
.LVL292:
	.loc 1 359 8
	addw	a4,a4,a3
.LVL293:
	.loc 1 360 2 is_stmt 1
.LBB1841:
	.loc 1 360 2
#APP
# 360 "dram/sun20iw1p1/mctl_standby-sun8iw20.c" 1
	fence w,o
# 0 "" 2
	.loc 1 360 2
	.loc 1 360 2
.LVL294:
#NO_APP
.LBB1842:
.LBB1843:
	.loc 2 37 2
	li	a5,51392512
.LBE1843:
.LBE1842:
	.loc 1 360 2 is_stmt 0
	lhu	a3,24(s0)
.LBB1845:
.LBB1844:
	.loc 2 37 2
	addi	a1,a5,48
#APP
# 37 "include/type.h" 1
	sw a3, 0(a1)
# 0 "" 2
.LVL295:
#NO_APP
.LBE1844:
.LBE1845:
	.loc 1 360 2 is_stmt 1
	.loc 1 360 2
.LBE1841:
	.loc 1 361 2
.LBB1846:
	.loc 1 361 2
#APP
# 361 "dram/sun20iw1p1/mctl_standby-sun8iw20.c" 1
	fence w,o
# 0 "" 2
	.loc 1 361 2
	.loc 1 361 2
.LVL296:
#NO_APP
.LBB1847:
.LBB1848:
	.loc 2 37 2
.LBE1848:
.LBE1847:
	.loc 1 361 2 is_stmt 0
	lhu	a3,28(s0)
.LBB1850:
.LBB1849:
	.loc 2 37 2
	addi	a1,a5,52
#APP
# 37 "include/type.h" 1
	sw a3, 0(a1)
# 0 "" 2
.LVL297:
#NO_APP
.LBE1849:
.LBE1850:
	.loc 1 361 2 is_stmt 1
	.loc 1 361 2
.LBE1846:
	.loc 1 362 2
.LBB1851:
	.loc 1 362 2
#APP
# 362 "dram/sun20iw1p1/mctl_standby-sun8iw20.c" 1
	fence w,o
# 0 "" 2
	.loc 1 362 2
	.loc 1 362 2
.LVL298:
#NO_APP
.LBB1852:
.LBB1853:
	.loc 2 37 2
.LBE1853:
.LBE1852:
	.loc 1 362 2 is_stmt 0
	lhu	a3,32(s0)
.LBB1855:
.LBB1854:
	.loc 2 37 2
	addi	a1,a5,56
#APP
# 37 "include/type.h" 1
	sw a3, 0(a1)
# 0 "" 2
.LVL299:
#NO_APP
.LBE1854:
.LBE1855:
	.loc 1 362 2 is_stmt 1
	.loc 1 362 2
.LBE1851:
	.loc 1 363 2
.LBB1856:
	.loc 1 363 2
#APP
# 363 "dram/sun20iw1p1/mctl_standby-sun8iw20.c" 1
	fence w,o
# 0 "" 2
	.loc 1 363 2
	.loc 1 363 2
.LVL300:
#NO_APP
.LBB1857:
.LBB1858:
	.loc 2 37 2
.LBE1858:
.LBE1857:
	.loc 1 363 2 is_stmt 0
	lhu	a3,36(s0)
.LBB1860:
.LBB1859:
	.loc 2 37 2
	addi	a1,a5,60
#APP
# 37 "include/type.h" 1
	sw a3, 0(a1)
# 0 "" 2
.LVL301:
#NO_APP
.LBE1859:
.LBE1860:
	.loc 1 363 2 is_stmt 1
	.loc 1 363 2
.LBE1856:
	.loc 1 364 2
.LBB1861:
	.loc 1 364 2
#APP
# 364 "dram/sun20iw1p1/mctl_standby-sun8iw20.c" 1
	fence w,o
# 0 "" 2
	.loc 1 364 2
	.loc 1 364 2
.LVL302:
#NO_APP
.LBB1862:
.LBB1863:
	.loc 2 37 2
.LBE1863:
.LBE1862:
	.loc 1 364 2 is_stmt 0
	lw	a3,12(s0)
.LBB1866:
.LBB1864:
	.loc 2 37 2
	addi	a1,a5,44
.LBE1864:
.LBE1866:
	.loc 1 364 2
	extu	a3,a3,4+2-1,4
.LBB1867:
.LBB1865:
	.loc 2 37 2
#APP
# 37 "include/type.h" 1
	sw a3, 0(a1)
# 0 "" 2
.LVL303:
#NO_APP
.LBE1865:
.LBE1867:
	.loc 1 364 2 is_stmt 1
	.loc 1 364 2
.LBE1861:
	.loc 1 365 2
.LBB1868:
	.loc 1 365 2
#APP
# 365 "dram/sun20iw1p1/mctl_standby-sun8iw20.c" 1
	fence w,o
# 0 "" 2
	.loc 1 365 2
	.loc 1 365 2
.LVL304:
#NO_APP
.LBB1869:
.LBB1870:
	.loc 2 37 2
	lw	a3,8(s1)
	addi	a1,a5,88
#APP
# 37 "include/type.h" 1
	sw a3, 0(a1)
# 0 "" 2
.LVL305:
#NO_APP
.LBE1870:
.LBE1869:
	.loc 1 365 2
	.loc 1 365 2
.LBE1868:
	.loc 1 366 2
.LBB1871:
	.loc 1 366 2
#APP
# 366 "dram/sun20iw1p1/mctl_standby-sun8iw20.c" 1
	fence w,o
# 0 "" 2
	.loc 1 366 2
	.loc 1 366 2
.LVL306:
#NO_APP
.LBB1872:
.LBB1873:
	.loc 2 37 2
	lw	a3,12(s1)
	addi	a1,a5,92
#APP
# 37 "include/type.h" 1
	sw a3, 0(a1)
# 0 "" 2
.LVL307:
#NO_APP
.LBE1873:
.LBE1872:
	.loc 1 366 2
	.loc 1 366 2
.LBE1871:
	.loc 1 367 2
.LBB1874:
	.loc 1 367 2
#APP
# 367 "dram/sun20iw1p1/mctl_standby-sun8iw20.c" 1
	fence w,o
# 0 "" 2
	.loc 1 367 2
	.loc 1 367 2
.LVL308:
#NO_APP
.LBB1875:
.LBB1876:
	.loc 2 37 2
	lw	a3,16(s1)
	addi	a1,a5,96
#APP
# 37 "include/type.h" 1
	sw a3, 0(a1)
# 0 "" 2
.LVL309:
#NO_APP
.LBE1876:
.LBE1875:
	.loc 1 367 2
	.loc 1 367 2
.LBE1874:
	.loc 1 368 2
.LBB1877:
	.loc 1 368 2
#APP
# 368 "dram/sun20iw1p1/mctl_standby-sun8iw20.c" 1
	fence w,o
# 0 "" 2
	.loc 1 368 2
	.loc 1 368 2
.LVL310:
#NO_APP
.LBB1878:
.LBB1879:
	.loc 2 37 2
	lw	a3,20(s1)
	addi	a1,a5,100
#APP
# 37 "include/type.h" 1
	sw a3, 0(a1)
# 0 "" 2
.LVL311:
#NO_APP
.LBE1879:
.LBE1878:
	.loc 1 368 2
	.loc 1 368 2
.LBE1877:
	.loc 1 369 2
.LBB1880:
	.loc 1 369 2
#APP
# 369 "dram/sun20iw1p1/mctl_standby-sun8iw20.c" 1
	fence w,o
# 0 "" 2
	.loc 1 369 2
	.loc 1 369 2
.LVL312:
#NO_APP
.LBB1881:
.LBB1882:
	.loc 2 37 2
	lw	a3,24(s1)
	addi	a1,a5,104
#APP
# 37 "include/type.h" 1
	sw a3, 0(a1)
# 0 "" 2
.LVL313:
#NO_APP
.LBE1882:
.LBE1881:
	.loc 1 369 2
	.loc 1 369 2
.LBE1880:
	.loc 1 370 2
.LBB1883:
	.loc 1 370 2
#APP
# 370 "dram/sun20iw1p1/mctl_standby-sun8iw20.c" 1
	fence w,o
# 0 "" 2
	.loc 1 370 2
	.loc 1 370 2
.LVL314:
#NO_APP
.LBB1884:
.LBB1885:
	.loc 2 37 2
	lw	a3,28(s1)
	addi	a1,a5,108
#APP
# 37 "include/type.h" 1
	sw a3, 0(a1)
# 0 "" 2
.LVL315:
#NO_APP
.LBE1885:
.LBE1884:
	.loc 1 370 2
	.loc 1 370 2
.LBE1883:
	.loc 1 371 2
.LBB1886:
	.loc 1 371 2
#APP
# 371 "dram/sun20iw1p1/mctl_standby-sun8iw20.c" 1
	fence w,o
# 0 "" 2
	.loc 1 371 2
	.loc 1 371 2
.LVL316:
#NO_APP
.LBB1887:
.LBB1888:
	.loc 2 37 2
	lw	a3,32(s1)
	addi	a1,a5,120
#APP
# 37 "include/type.h" 1
	sw a3, 0(a1)
# 0 "" 2
.LVL317:
#NO_APP
.LBE1888:
.LBE1887:
	.loc 1 371 2
	.loc 1 371 2
.LBE1886:
	.loc 1 372 2
.LBB1889:
	.loc 1 372 2
#APP
# 372 "dram/sun20iw1p1/mctl_standby-sun8iw20.c" 1
	fence w,o
# 0 "" 2
	.loc 1 372 2
	.loc 1 372 2
.LVL318:
#NO_APP
.LBB1890:
.LBB1891:
	.loc 2 37 2
	lw	a3,36(s1)
	addi	a1,a5,128
#APP
# 37 "include/type.h" 1
	sw a3, 0(a1)
# 0 "" 2
.LVL319:
#NO_APP
.LBE1891:
.LBE1890:
	.loc 1 372 2
	.loc 1 372 2
.LBE1889:
	.loc 1 373 2
.LBB1892:
	.loc 1 373 2
#APP
# 373 "dram/sun20iw1p1/mctl_standby-sun8iw20.c" 1
	fence w,o
# 0 "" 2
	.loc 1 373 2
	.loc 1 373 2
.LVL320:
#NO_APP
.LBB1893:
.LBB1894:
	.loc 2 37 2
	lw	a3,40(s1)
	addi	a1,a5,80
#APP
# 37 "include/type.h" 1
	sw a3, 0(a1)
# 0 "" 2
.LVL321:
#NO_APP
.LBE1894:
.LBE1893:
	.loc 1 373 2
	.loc 1 373 2
.LBE1892:
	.loc 1 374 2
.LBB1895:
	.loc 1 374 2
#APP
# 374 "dram/sun20iw1p1/mctl_standby-sun8iw20.c" 1
	fence w,o
# 0 "" 2
	.loc 1 374 2
	.loc 1 374 2
.LVL322:
#NO_APP
.LBB1896:
.LBB1897:
	.loc 2 37 2
	lw	a3,44(s1)
	addi	a1,a5,84
#APP
# 37 "include/type.h" 1
	sw a3, 0(a1)
# 0 "" 2
.LVL323:
#NO_APP
.LBE1897:
.LBE1896:
	.loc 1 374 2
	.loc 1 374 2
.LBE1895:
	.loc 1 375 2
	.loc 1 376 2
	.loc 1 377 2
.LBB1898:
	.loc 1 377 2
#APP
# 377 "dram/sun20iw1p1/mctl_standby-sun8iw20.c" 1
	fence w,o
# 0 "" 2
	.loc 1 377 2
	.loc 1 377 2
.LVL324:
#NO_APP
.LBB1899:
.LBB1900:
	.loc 2 37 2
.LBE1900:
.LBE1899:
.LBE1898:
	.loc 1 376 19 is_stmt 0
	slliw	a3,a4,16
	.loc 1 376 10
	or	a3,a2,a3
.LBB1903:
.LBB1902:
.LBB1901:
	.loc 2 37 2
	addi	a2,a5,144
.LVL325:
#APP
# 37 "include/type.h" 1
	sw a3, 0(a2)
# 0 "" 2
.LVL326:
#NO_APP
.LBE1901:
.LBE1902:
	.loc 1 377 2 is_stmt 1
	.loc 1 377 2
.LBE1903:
	.loc 1 378 2
	.loc 1 379 2
.LBB1904:
	.loc 1 379 2
#APP
# 379 "dram/sun20iw1p1/mctl_standby-sun8iw20.c" 1
	fence w,o
# 0 "" 2
	.loc 1 379 2
	.loc 1 379 2
.LVL327:
#NO_APP
.LBB1905:
.LBB1906:
	.loc 2 37 2
.LBE1906:
.LBE1905:
.LBE1904:
	.loc 1 378 10 is_stmt 0
	li	a3,268369920
	.loc 1 378 20
	slliw	a4,a4,15
.LVL328:
	.loc 1 378 10
	and	a4,a4,a3
.LBB1909:
.LBB1908:
.LBB1907:
	.loc 2 37 2
	addi	a3,a5,148
#APP
# 37 "include/type.h" 1
	sw a4, 0(a3)
# 0 "" 2
.LVL329:
#NO_APP
.LBE1907:
.LBE1908:
	.loc 1 379 2 is_stmt 1
	.loc 1 379 2
.LBE1909:
.LBE1824:
.LBE1823:
	.loc 1 1070 2
.LBB1920:
.LBB1921:
	.loc 1 781 2
	.loc 1 782 2
	.loc 1 783 2
	.loc 1 784 2
	.loc 1 785 2
	.loc 1 785 38 is_stmt 0
	lw	s1,92(s0)
.LBB1922:
.LBB1923:
.LBB1924:
	.loc 2 60 2
	addi	a3,a5,264
.LBE1924:
.LBE1923:
.LBE1922:
	.loc 1 785 18
	extu	s1,s1,2+2-1,2
.LVL330:
	.loc 1 789 2 is_stmt 1
.LBB1927:
	.loc 1 789 12
	.loc 1 789 12
	.loc 1 789 12
	.loc 1 789 12
.LBB1926:
.LBB1925:
	.loc 2 58 2
	.loc 2 60 2
#APP
# 60 "include/type.h" 1
	lw a2, 0(a3)
# 0 "" 2
.LVL331:
	.loc 2 61 2
#NO_APP
.LBE1925:
.LBE1926:
	.loc 1 789 12
#APP
# 789 "dram/sun20iw1p1/mctl_standby-sun8iw20.c" 1
	fence i,r
# 0 "" 2
	.loc 1 789 12
	.loc 1 789 12
.LVL332:
#NO_APP
.LBE1927:
	.loc 1 790 2
	.loc 1 791 2
	.loc 1 792 2
	.loc 1 792 10 is_stmt 0
	li	a4,-4096
	addiw	a4,a4,255
	and	a4,a4,a2
.LVL333:
	.loc 1 793 2 is_stmt 1
	.loc 1 794 2
.LBB1928:
	.loc 1 794 2
#APP
# 794 "dram/sun20iw1p1/mctl_standby-sun8iw20.c" 1
	fence w,o
# 0 "" 2
	.loc 1 794 2
	.loc 1 794 2
.LVL334:
#NO_APP
.LBB1929:
.LBB1930:
	.loc 2 37 2
.LBE1930:
.LBE1929:
.LBE1928:
	.loc 1 793 10 is_stmt 0
	ori	a4,a4,768
.LVL335:
.LBB1933:
.LBB1932:
.LBB1931:
	.loc 2 37 2
#APP
# 37 "include/type.h" 1
	sw a4, 0(a3)
# 0 "" 2
.LVL336:
#NO_APP
.LBE1931:
.LBE1932:
	.loc 1 794 2 is_stmt 1
	.loc 1 794 2
.LBE1933:
	.loc 1 795 38
	.loc 1 799 2
	.loc 1 800 75
	.loc 1 801 2
	lw	a4,12(s0)
.LBB1934:
.LBB1935:
.LBB1936:
	.loc 2 60 2 is_stmt 0
	addi	a5,a5,836
	not	a4,a4
.LVL337:
.LBE1936:
.LBE1935:
.LBE1934:
	.loc 1 802 2 is_stmt 1
	.loc 1 805 3
.LBB1941:
	.loc 1 805 13
	.loc 1 805 13
	.loc 1 805 13
	.loc 1 805 13
.LBB1939:
.LBB1937:
	.loc 2 58 2
	.loc 2 60 2
#APP
# 60 "include/type.h" 1
	lw a5, 0(a5)
# 0 "" 2
.LVL338:
	.loc 2 61 2
#NO_APP
.LBE1937:
.LBE1939:
	.loc 1 805 13
#APP
# 805 "dram/sun20iw1p1/mctl_standby-sun8iw20.c" 1
	fence i,r
# 0 "" 2
	.loc 1 805 13
	.loc 1 805 13
.LVL339:
#NO_APP
.LBE1941:
	.loc 1 806 3
	.loc 1 807 23 is_stmt 0
	slliw	a4,a4,5
.LVL340:
	.loc 1 812 5
	lw	a2,0(s0)
.LVL341:
	.loc 1 806 11
	andi	a5,a5,-49
.LVL342:
	.loc 1 807 23
	andi	a4,a4,32
	.loc 1 806 11
	sext.w	a5,a5
.LVL343:
	.loc 1 807 3 is_stmt 1
	.loc 1 807 23 is_stmt 0
	sext.w	a4,a4
	.loc 1 812 5
	li	a3,672
	.loc 1 807 11
	or	a5,a5,a4
.LVL344:
	.loc 1 808 3 is_stmt 1
	.loc 1 809 3
	.loc 1 810 3
	.loc 1 811 3
	.loc 1 812 3
	.loc 1 812 5 is_stmt 0
	bgtu	a2,a3,.L55
	.loc 1 811 11
	li	a3,-61440
	addi	a3,a3,-15
	and	a5,a5,a3
.LVL345:
.L56:
	.loc 1 817 3 is_stmt 1
.LBB1942:
	.loc 1 817 3
#APP
# 817 "dram/sun20iw1p1/mctl_standby-sun8iw20.c" 1
	fence w,o
# 0 "" 2
	.loc 1 817 3
	.loc 1 817 3
.LVL346:
#NO_APP
.LBB1943:
.LBB1944:
	.loc 2 37 2
	li	a3,51392512
	addi	a2,a3,836
#APP
# 37 "include/type.h" 1
	sw a5, 0(a2)
# 0 "" 2
.LVL347:
#NO_APP
.LBE1944:
.LBE1943:
	.loc 1 817 3
	.loc 1 817 3
.LBE1942:
	.loc 1 805 3
.LBB1947:
	.loc 1 805 13
	.loc 1 805 13
	.loc 1 805 13
	.loc 1 805 13
.LBB1940:
.LBB1938:
	.loc 2 58 2
	.loc 2 60 2
	addi	a3,a3,964
#APP
# 60 "include/type.h" 1
	lw a3, 0(a3)
# 0 "" 2
.LVL348:
	.loc 2 61 2
#NO_APP
.LBE1938:
.LBE1940:
	.loc 1 805 13
#APP
# 805 "dram/sun20iw1p1/mctl_standby-sun8iw20.c" 1
	fence i,r
# 0 "" 2
	.loc 1 805 13
	.loc 1 805 13
.LVL349:
#NO_APP
.LBE1947:
	.loc 1 806 3
	.loc 1 812 5 is_stmt 0
	lw	a2,0(s0)
	.loc 1 806 11
	andi	a3,a3,-49
.LVL350:
	sext.w	a3,a3
.LVL351:
	.loc 1 807 3 is_stmt 1
	.loc 1 812 5 is_stmt 0
	li	a5,672
	.loc 1 807 11
	or	a4,a4,a3
.LVL352:
	.loc 1 808 3 is_stmt 1
	.loc 1 809 3
	.loc 1 810 3
	.loc 1 811 3
	.loc 1 812 3
	.loc 1 812 5 is_stmt 0
	bgtu	a2,a5,.L57
	.loc 1 811 11
	li	a5,-61440
	addi	a5,a5,-15
	and	a4,a4,a5
.LVL353:
.L58:
	.loc 1 817 3 is_stmt 1
.LBB1948:
	.loc 1 817 3
#APP
# 817 "dram/sun20iw1p1/mctl_standby-sun8iw20.c" 1
	fence w,o
# 0 "" 2
	.loc 1 817 3
	.loc 1 817 3
.LVL354:
#NO_APP
.LBB1946:
.LBB1945:
	.loc 2 37 2
	li	s2,51392512
	addi	a5,s2,964
#APP
# 37 "include/type.h" 1
	sw a4, 0(a5)
# 0 "" 2
.LVL355:
#NO_APP
.LBE1945:
.LBE1946:
	.loc 1 817 3
	.loc 1 817 3
.LBE1948:
	.loc 1 819 39
	.loc 1 821 2
.LBB1949:
	.loc 1 821 12
	.loc 1 821 12
	.loc 1 821 12
	.loc 1 821 12
.LBB1950:
.LBB1951:
	.loc 2 58 2
	.loc 2 60 2
	addi	a4,s2,520
.LVL356:
#APP
# 60 "include/type.h" 1
	lw a3, 0(a4)
# 0 "" 2
.LVL357:
	.loc 2 61 2
#NO_APP
.LBE1951:
.LBE1950:
	.loc 1 821 12
#APP
# 821 "dram/sun20iw1p1/mctl_standby-sun8iw20.c" 1
	fence i,r
# 0 "" 2
	.loc 1 821 12
	.loc 1 821 12
.LVL358:
#NO_APP
.LBE1949:
	.loc 1 822 2
	.loc 1 823 2
	.loc 1 824 2
.LBB1952:
	.loc 1 824 2
#APP
# 824 "dram/sun20iw1p1/mctl_standby-sun8iw20.c" 1
	fence w,o
# 0 "" 2
	.loc 1 824 2
	.loc 1 824 2
.LVL359:
#NO_APP
.LBB1953:
.LBB1954:
	.loc 2 37 2
.LBE1954:
.LBE1953:
.LBE1952:
	.loc 1 823 10 is_stmt 0
	li	a5,-4096
	addi	a5,a5,2047
	and	a5,a5,a3
	ori	a5,a5,2
.LBB1957:
.LBB1956:
.LBB1955:
	.loc 2 37 2
#APP
# 37 "include/type.h" 1
	sw a5, 0(a4)
# 0 "" 2
.LVL360:
#NO_APP
.LBE1955:
.LBE1956:
	.loc 1 824 2 is_stmt 1
	.loc 1 824 2
.LBE1957:
	.loc 1 828 2
	mv	a0,s0
	call	bit_delay_compensation_standby
.LVL361:
	.loc 1 832 2
	li	a5,1
	beq	s1,a5,.L59
	li	a5,2
	beq	s1,a5,.L60
	.loc 1 866 4
.LBB1958:
	.loc 1 866 14
	.loc 1 866 14
	.loc 1 866 14
	.loc 1 866 14
.LVL362:
.LBB1959:
.LBB1960:
	.loc 2 58 2
	.loc 2 60 2
	addi	s2,s2,264
#APP
# 60 "include/type.h" 1
	lw a5, 0(s2)
# 0 "" 2
.LVL363:
	.loc 2 61 2
#NO_APP
.LBE1960:
.LBE1959:
	.loc 1 866 14
#APP
# 866 "dram/sun20iw1p1/mctl_standby-sun8iw20.c" 1
	fence i,r
# 0 "" 2
	.loc 1 866 14
	.loc 1 866 14
.LVL364:
#NO_APP
.LBE1958:
	.loc 1 867 4
	.loc 1 868 4
.LBB1961:
	.loc 1 868 4
#APP
# 868 "dram/sun20iw1p1/mctl_standby-sun8iw20.c" 1
	fence w,o
# 0 "" 2
	.loc 1 868 4
	.loc 1 868 4
.LVL365:
#NO_APP
.LBB1962:
.LBB1963:
	.loc 2 37 2
.LBE1963:
.LBE1962:
.LBE1961:
	.loc 1 867 12 is_stmt 0
	andi	a5,a5,-65
.LVL366:
.LBB1966:
.LBB1965:
.LBB1964:
	.loc 2 37 2
#APP
# 37 "include/type.h" 1
	sw a5, 0(s2)
# 0 "" 2
.LVL367:
#NO_APP
.LBE1964:
.LBE1965:
	.loc 1 868 4 is_stmt 1
	.loc 1 868 4
.LBE1966:
	.loc 1 870 4
.LBB1967:
	.loc 1 870 14
	.loc 1 870 14
	.loc 1 870 14
	.loc 1 870 14
.LBB1968:
.LBB1969:
	.loc 2 58 2
	.loc 2 60 2
#APP
# 60 "include/type.h" 1
	lw a5, 0(s2)
# 0 "" 2
.LVL368:
	.loc 2 61 2
#NO_APP
.LBE1969:
.LBE1968:
	.loc 1 870 14
#APP
# 870 "dram/sun20iw1p1/mctl_standby-sun8iw20.c" 1
	fence i,r
# 0 "" 2
	.loc 1 870 14
	.loc 1 870 14
.LVL369:
#NO_APP
.LBE1967:
	.loc 1 871 4
	.loc 1 872 4
.LBB1970:
	.loc 1 872 4
#APP
# 872 "dram/sun20iw1p1/mctl_standby-sun8iw20.c" 1
	fence w,o
# 0 "" 2
	.loc 1 872 4
	.loc 1 872 4
.LVL370:
#NO_APP
.LBB1971:
.LBB1972:
	.loc 2 37 2
.LBE1972:
.LBE1971:
.LBE1970:
	.loc 1 871 12 is_stmt 0
	ori	a5,a5,192
.LVL371:
.LBB1975:
.LBB1974:
.LBB1973:
	.loc 2 37 2
#APP
# 37 "include/type.h" 1
	sw a5, 0(s2)
# 0 "" 2
.LVL372:
#NO_APP
.L62:
.LBE1973:
.LBE1974:
.LBE1975:
	.loc 1 879 2 is_stmt 1
	.loc 1 879 28 is_stmt 0
	lw	a5,4(s0)
	.loc 1 879 4
	li	a4,1
	addiw	a5,a5,-6
	bgtu	a5,a4,.L63
	.loc 1 881 3 is_stmt 1
.LBB1976:
	.loc 1 881 13
	.loc 1 881 13
	.loc 1 881 13
	.loc 1 881 13
.LVL373:
.LBB1977:
.LBB1978:
	.loc 2 58 2
	.loc 2 60 2
	li	a4,51392512
	addi	a4,a4,284
#APP
# 60 "include/type.h" 1
	lw a3, 0(a4)
# 0 "" 2
.LVL374:
	.loc 2 61 2
#NO_APP
.LBE1978:
.LBE1977:
	.loc 1 881 13
#APP
# 881 "dram/sun20iw1p1/mctl_standby-sun8iw20.c" 1
	fence i,r
# 0 "" 2
	.loc 1 881 13
	.loc 1 881 13
.LVL375:
#NO_APP
.LBE1976:
	.loc 1 882 3
	.loc 1 883 3
	.loc 1 883 11 is_stmt 0
	li	a5,-1996488704
	addiw	a5,a5,-1
	and	a5,a5,a3
.LVL376:
	.loc 1 884 3 is_stmt 1
	.loc 1 885 3
	.loc 1 886 3
.LBB1979:
	.loc 1 886 3
#APP
# 886 "dram/sun20iw1p1/mctl_standby-sun8iw20.c" 1
	fence w,o
# 0 "" 2
	.loc 1 886 3
	.loc 1 886 3
.LVL377:
#NO_APP
.LBB1980:
.LBB1981:
	.loc 2 37 2
.LBE1981:
.LBE1980:
.LBE1979:
	.loc 1 885 11 is_stmt 0
	li	a3,570425344
.LVL378:
	or	a5,a5,a3
.LVL379:
.LBB1984:
.LBB1983:
.LBB1982:
	.loc 2 37 2
#APP
# 37 "include/type.h" 1
	sw a5, 0(a4)
# 0 "" 2
.LVL380:
#NO_APP
.L63:
.LBE1982:
.LBE1983:
	.loc 1 886 3 is_stmt 1
	.loc 1 886 3
.LBE1984:
	.loc 1 891 2
	.loc 1 891 5 is_stmt 0
	lw	a5,20(s0)
	.loc 1 891 4
	slli	a4,a5,51
	bgez	a4,.L64
	.loc 1 893 3 is_stmt 1
.LBB1985:
	.loc 1 893 13
	.loc 1 893 13
	.loc 1 893 13
	.loc 1 893 13
.LVL381:
.LBB1986:
.LBB1987:
	.loc 2 58 2
	.loc 2 60 2
	li	a4,51392512
	addi	a4,a4,192
#APP
# 60 "include/type.h" 1
	lw a5, 0(a4)
# 0 "" 2
.LVL382:
	.loc 2 61 2
#NO_APP
.LBE1987:
.LBE1986:
	.loc 1 893 13
#APP
# 893 "dram/sun20iw1p1/mctl_standby-sun8iw20.c" 1
	fence i,r
# 0 "" 2
	.loc 1 893 13
	.loc 1 893 13
.LVL383:
#NO_APP
.LBE1985:
	.loc 1 894 3
	.loc 1 894 11 is_stmt 0
	li	a3,-268435456
	and	a5,a5,a3
.LVL384:
	.loc 1 895 3 is_stmt 1
	.loc 1 896 3
.LBB1988:
	.loc 1 896 3
#APP
# 896 "dram/sun20iw1p1/mctl_standby-sun8iw20.c" 1
	fence w,o
# 0 "" 2
	.loc 1 896 3
	.loc 1 896 3
.LVL385:
#NO_APP
.LBB1989:
.LBB1990:
	.loc 2 37 2
.LBE1990:
.LBE1989:
.LBE1988:
	.loc 1 895 11 is_stmt 0
	li	a3,50343936
	addi	a3,a3,135
	or	a5,a5,a3
.LVL386:
.LBB1993:
.LBB1992:
.LBB1991:
	.loc 2 37 2
#APP
# 37 "include/type.h" 1
	sw a5, 0(a4)
# 0 "" 2
.LVL387:
#NO_APP
.L65:
.LBE1991:
.LBE1992:
.LBE1993:
.LBB1994:
	.loc 1 903 3 is_stmt 1
	.loc 1 903 3
.LBE1994:
	.loc 1 906 2
.LBB1999:
	.loc 1 906 12
	.loc 1 906 12
	.loc 1 906 12
	.loc 1 906 12
.LBB2000:
.LBB2001:
	.loc 2 58 2
	.loc 2 60 2
	li	a5,117506048
	addi	a5,a5,592
#APP
# 60 "include/type.h" 1
	lw a4, 0(a5)
# 0 "" 2
.LVL388:
	.loc 2 61 2
#NO_APP
.LBE2001:
.LBE2000:
	.loc 1 906 12
#APP
# 906 "dram/sun20iw1p1/mctl_standby-sun8iw20.c" 1
	fence i,r
# 0 "" 2
	.loc 1 906 12
	.loc 1 906 12
.LVL389:
#NO_APP
.LBE1999:
	.loc 1 907 2
	.loc 1 908 2
.LBB2002:
	.loc 1 908 2
#APP
# 908 "dram/sun20iw1p1/mctl_standby-sun8iw20.c" 1
	fence w,o
# 0 "" 2
	.loc 1 908 2
	.loc 1 908 2
.LVL390:
#NO_APP
.LBB2003:
.LBB2004:
	.loc 2 37 2
.LBE2004:
.LBE2003:
.LBE2002:
	.loc 1 907 10 is_stmt 0
	andi	a4,a4,-3
.LVL391:
.LBB2007:
.LBB2006:
.LBB2005:
	.loc 2 37 2
#APP
# 37 "include/type.h" 1
	sw a4, 0(a5)
# 0 "" 2
.LVL392:
#NO_APP
.LBE2005:
.LBE2006:
	.loc 1 908 2 is_stmt 1
	.loc 1 908 2
.LBE2007:
	.loc 1 909 2
.LBE1921:
.LBE1920:
	.loc 1 47 2
	.loc 1 48 2
	.loc 1 48 13
.LBB2236:
.LBB2226:
	.loc 1 911 2
.LBB2008:
	.loc 1 911 12
	.loc 1 911 12
	.loc 1 911 12
	.loc 1 911 12
.LBB2009:
.LBB2010:
	.loc 2 58 2
	.loc 2 60 2
	li	a4,51392512
	addi	a2,a4,320
#APP
# 60 "include/type.h" 1
	lw a3, 0(a2)
# 0 "" 2
.LVL393:
	.loc 2 61 2
#NO_APP
.LBE2010:
.LBE2009:
	.loc 1 911 12
#APP
# 911 "dram/sun20iw1p1/mctl_standby-sun8iw20.c" 1
	fence i,r
# 0 "" 2
	.loc 1 911 12
	.loc 1 911 12
.LVL394:
#NO_APP
.LBE2008:
	.loc 1 912 2
	.loc 1 913 30 is_stmt 0
	lw	a5,8(s0)
	.loc 1 912 10
	li	a1,-67108864
	and	a3,a3,a1
.LVL395:
	.loc 1 913 2 is_stmt 1
	.loc 1 913 30 is_stmt 0
	extu	a5,a5,0+24-1,0
	.loc 1 913 10
	or	a5,a5,a3
.LVL396:
	.loc 1 914 2 is_stmt 1
	.loc 1 915 2
.LBB2011:
	.loc 1 915 2
#APP
# 915 "dram/sun20iw1p1/mctl_standby-sun8iw20.c" 1
	fence w,o
# 0 "" 2
	.loc 1 915 2
	.loc 1 915 2
.LVL397:
#NO_APP
.LBB2012:
.LBB2013:
	.loc 2 37 2
.LBE2013:
.LBE2012:
.LBE2011:
	.loc 1 914 10 is_stmt 0
	li	a3,33554432
	or	a5,a5,a3
.LVL398:
.LBB2016:
.LBB2015:
.LBB2014:
	.loc 2 37 2
#APP
# 37 "include/type.h" 1
	sw a5, 0(a2)
# 0 "" 2
.LVL399:
#NO_APP
.LBE2014:
.LBE2015:
	.loc 1 915 2 is_stmt 1
	.loc 1 915 2
.LBE2016:
	.loc 1 917 2
	.loc 1 917 4 is_stmt 0
	li	a5,1
	li	a3,99
	.loc 1 929 11
	li	a2,98
	.loc 1 917 4
	beq	s1,a5,.L96
.L66:
	.loc 1 931 2 is_stmt 1
.LBB2017:
	.loc 1 931 2
#APP
# 931 "dram/sun20iw1p1/mctl_standby-sun8iw20.c" 1
	fence w,o
# 0 "" 2
	.loc 1 931 2
	.loc 1 931 2
.LVL400:
#NO_APP
.LBB2018:
.LBB2019:
	.loc 2 37 2
	li	a5,51392512
#APP
# 37 "include/type.h" 1
	sw a2, 0(a5)
# 0 "" 2
.LVL401:
#NO_APP
.LBE2019:
.LBE2018:
	.loc 1 931 2
	.loc 1 931 2
.LBE2017:
	.loc 1 932 2
	.loc 1 933 2
.LBB2020:
	.loc 1 933 2
#APP
# 933 "dram/sun20iw1p1/mctl_standby-sun8iw20.c" 1
	fence w,o
# 0 "" 2
	.loc 1 933 2
	.loc 1 933 2
.LVL402:
#NO_APP
.LBB2021:
.LBB2022:
	.loc 2 37 2
#APP
# 37 "include/type.h" 1
	sw a3, 0(a5)
# 0 "" 2
#NO_APP
.LBE2022:
.LBE2021:
.LBE2020:
.LBB2023:
.LBB2024:
.LBB2025:
	.loc 2 60 2 is_stmt 0
	li	a4,51392512
	addi	a3,a4,16
	.align	3
.L68:
.LBE2025:
.LBE2024:
.LBE2023:
	.loc 1 935 42 is_stmt 1
.LBB2028:
	.loc 1 935 9
	.loc 1 935 9
	.loc 1 935 9
	.loc 1 935 9
.LVL403:
.LBB2027:
.LBB2026:
	.loc 2 58 2
	.loc 2 60 2
#APP
# 60 "include/type.h" 1
	lw a5, 0(a3)
# 0 "" 2
.LVL404:
	.loc 2 61 2
#NO_APP
.LBE2026:
.LBE2027:
	.loc 1 935 9
#APP
# 935 "dram/sun20iw1p1/mctl_standby-sun8iw20.c" 1
	fence i,r
# 0 "" 2
	.loc 1 935 9
	.loc 1 935 9
#NO_APP
.LBE2028:
	.loc 1 935 7 is_stmt 0
	andi	a5,a5,1
.LVL405:
	beqz	a5,.L68
	.loc 1 937 2 is_stmt 1
.LBB2029:
	.loc 1 937 12
	.loc 1 937 12
	.loc 1 937 12
	.loc 1 937 12
.LVL406:
.LBB2030:
.LBB2031:
	.loc 2 58 2
	.loc 2 60 2
	addi	a3,a4,268
#APP
# 60 "include/type.h" 1
	lw a2, 0(a3)
# 0 "" 2
.LVL407:
	.loc 2 61 2
#NO_APP
.LBE2031:
.LBE2030:
	.loc 1 937 12
#APP
# 937 "dram/sun20iw1p1/mctl_standby-sun8iw20.c" 1
	fence i,r
# 0 "" 2
	.loc 1 937 12
	.loc 1 937 12
.LVL408:
#NO_APP
.LBE2029:
	.loc 1 938 2
	.loc 1 938 10 is_stmt 0
	li	a5,-100663296
	addiw	a5,a5,-1
	and	a5,a5,a2
.LVL409:
	.loc 1 939 2 is_stmt 1
	.loc 1 940 2
.LBB2032:
	.loc 1 940 2
#APP
# 940 "dram/sun20iw1p1/mctl_standby-sun8iw20.c" 1
	fence w,o
# 0 "" 2
	.loc 1 940 2
	.loc 1 940 2
.LVL410:
#NO_APP
.LBB2033:
.LBB2034:
	.loc 2 37 2
.LBE2034:
.LBE2033:
.LBE2032:
	.loc 1 939 10 is_stmt 0
	li	a2,67108864
.LVL411:
	or	a5,a5,a2
.LVL412:
.LBB2037:
.LBB2036:
.LBB2035:
	.loc 2 37 2
#APP
# 37 "include/type.h" 1
	sw a5, 0(a3)
# 0 "" 2
.LVL413:
#NO_APP
.LBE2035:
.LBE2036:
	.loc 1 940 2 is_stmt 1
	.loc 1 940 2
.LBE2037:
	.loc 1 941 2
.LBE2226:
.LBE2236:
	.loc 1 47 2
	.loc 1 48 2
	.loc 1 48 13
.LBB2237:
.LBB2227:
	.loc 1 943 2
.LBB2038:
	.loc 1 943 12
	.loc 1 943 12
	.loc 1 943 12
	.loc 1 943 12
.LBB2039:
.LBB2040:
	.loc 2 58 2
	.loc 2 60 2
	addi	a4,a4,4
#APP
# 60 "include/type.h" 1
	lw a5, 0(a4)
# 0 "" 2
.LVL414:
	.loc 2 61 2
#NO_APP
.LBE2040:
.LBE2039:
	.loc 1 943 12
#APP
# 943 "dram/sun20iw1p1/mctl_standby-sun8iw20.c" 1
	fence i,r
# 0 "" 2
	.loc 1 943 12
	.loc 1 943 12
.LVL415:
#NO_APP
.LBE2038:
	.loc 1 944 2
	.loc 1 945 2
.LBB2041:
	.loc 1 945 2
#APP
# 945 "dram/sun20iw1p1/mctl_standby-sun8iw20.c" 1
	fence w,o
# 0 "" 2
	.loc 1 945 2
	.loc 1 945 2
.LVL416:
#NO_APP
.LBB2042:
.LBB2043:
	.loc 2 37 2
.LBE2043:
.LBE2042:
.LBE2041:
	.loc 1 944 10 is_stmt 0
	ori	a5,a5,1
.LVL417:
.LBB2046:
.LBB2045:
.LBB2044:
	.loc 2 37 2
#APP
# 37 "include/type.h" 1
	sw a5, 0(a4)
# 0 "" 2
#NO_APP
.LBE2044:
.LBE2045:
.LBE2046:
.LBB2047:
.LBB2048:
.LBB2049:
	.loc 2 60 2
	li	a5,51392512
	addi	a2,a5,24
.LBE2049:
.LBE2048:
.LBE2047:
	.loc 1 946 7
	li	a3,3
	.align	3
.L69:
	.loc 1 946 44 is_stmt 1
.LBB2052:
	.loc 1 946 10
	.loc 1 946 10
	.loc 1 946 10
	.loc 1 946 10
.LVL418:
.LBB2051:
.LBB2050:
	.loc 2 58 2
	.loc 2 60 2
#APP
# 60 "include/type.h" 1
	lw a4, 0(a2)
# 0 "" 2
.LVL419:
	.loc 2 61 2
#NO_APP
.LBE2050:
.LBE2051:
	.loc 1 946 10
#APP
# 946 "dram/sun20iw1p1/mctl_standby-sun8iw20.c" 1
	fence i,r
# 0 "" 2
	.loc 1 946 10
	.loc 1 946 10
#NO_APP
.LBE2052:
	.loc 1 946 7 is_stmt 0
	andi	a4,a4,7
.LVL420:
	bne	a4,a3,.L69
	.loc 1 949 2 is_stmt 1
.LBB2053:
	.loc 1 949 12
	.loc 1 949 12
	.loc 1 949 12
	.loc 1 949 12
.LVL421:
.LBB2054:
.LBB2055:
	.loc 2 58 2
	.loc 2 60 2
	li	a4,117506048
	addi	a4,a4,592
#APP
# 60 "include/type.h" 1
	lw a3, 0(a4)
# 0 "" 2
.LVL422:
	.loc 2 61 2
#NO_APP
.LBE2055:
.LBE2054:
	.loc 1 949 12
#APP
# 949 "dram/sun20iw1p1/mctl_standby-sun8iw20.c" 1
	fence i,r
# 0 "" 2
	.loc 1 949 12
	.loc 1 949 12
.LVL423:
#NO_APP
.LBE2053:
	.loc 1 950 2
	.loc 1 951 2
.LBB2056:
	.loc 1 951 2
#APP
# 951 "dram/sun20iw1p1/mctl_standby-sun8iw20.c" 1
	fence w,o
# 0 "" 2
	.loc 1 951 2
	.loc 1 951 2
.LVL424:
#NO_APP
.LBB2057:
.LBB2058:
	.loc 2 37 2
.LBE2058:
.LBE2057:
.LBE2056:
	.loc 1 950 10 is_stmt 0
	andi	a3,a3,-2
.LVL425:
.LBB2061:
.LBB2060:
.LBB2059:
	.loc 2 37 2
#APP
# 37 "include/type.h" 1
	sw a3, 0(a4)
# 0 "" 2
.LVL426:
#NO_APP
.LBE2059:
.LBE2060:
	.loc 1 951 2 is_stmt 1
	.loc 1 951 2
.LBE2061:
	.loc 1 952 2
.LBE2227:
.LBE2237:
	.loc 1 47 2
	.loc 1 48 2
	.loc 1 48 13
.LBB2238:
.LBB2228:
	.loc 1 955 2
.LBB2062:
	.loc 1 955 12
	.loc 1 955 12
	.loc 1 955 12
	.loc 1 955 12
.LBB2063:
.LBB2064:
	.loc 2 58 2
	.loc 2 60 2
	addi	a5,a5,4
#APP
# 60 "include/type.h" 1
	lw a4, 0(a5)
# 0 "" 2
.LVL427:
	.loc 2 61 2
#NO_APP
.LBE2064:
.LBE2063:
	.loc 1 955 12
#APP
# 955 "dram/sun20iw1p1/mctl_standby-sun8iw20.c" 1
	fence i,r
# 0 "" 2
	.loc 1 955 12
	.loc 1 955 12
.LVL428:
#NO_APP
.LBE2062:
	.loc 1 956 2
	.loc 1 957 2
.LBB2065:
	.loc 1 957 2
#APP
# 957 "dram/sun20iw1p1/mctl_standby-sun8iw20.c" 1
	fence w,o
# 0 "" 2
	.loc 1 957 2
	.loc 1 957 2
.LVL429:
#NO_APP
.LBB2066:
.LBB2067:
	.loc 2 37 2
.LBE2067:
.LBE2066:
.LBE2065:
	.loc 1 956 10 is_stmt 0
	andi	a4,a4,-2
.LVL430:
.LBB2070:
.LBB2069:
.LBB2068:
	.loc 2 37 2
#APP
# 37 "include/type.h" 1
	sw a4, 0(a5)
# 0 "" 2
#NO_APP
.LBE2068:
.LBE2069:
.LBE2070:
.LBB2071:
.LBB2072:
.LBB2073:
	.loc 2 60 2
	li	a4,51392512
	addi	a2,a4,24
.LBE2073:
.LBE2072:
.LBE2071:
	.loc 1 958 7
	li	a3,1
	.align	3
.L70:
	.loc 1 958 44 is_stmt 1
.LBB2076:
	.loc 1 958 10
	.loc 1 958 10
	.loc 1 958 10
	.loc 1 958 10
.LVL431:
.LBB2075:
.LBB2074:
	.loc 2 58 2
	.loc 2 60 2
#APP
# 60 "include/type.h" 1
	lw a5, 0(a2)
# 0 "" 2
.LVL432:
	.loc 2 61 2
#NO_APP
.LBE2074:
.LBE2075:
	.loc 1 958 10
#APP
# 958 "dram/sun20iw1p1/mctl_standby-sun8iw20.c" 1
	fence i,r
# 0 "" 2
	.loc 1 958 10
	.loc 1 958 10
#NO_APP
.LBE2076:
	.loc 1 958 7 is_stmt 0
	andi	a5,a5,7
.LVL433:
	bne	a5,a3,.L70
	.loc 1 959 2 is_stmt 1
.LVL434:
.LBE2228:
.LBE2238:
	.loc 1 47 2
	.loc 1 48 2
	.loc 1 48 13
.LBB2239:
.LBB2229:
	.loc 1 962 2
	.loc 1 962 4 is_stmt 0
	beq	s1,a3,.L71
.L74:
	.loc 1 982 2 is_stmt 1
.LBB2077:
	.loc 1 982 12
	.loc 1 982 12
	.loc 1 982 12
	.loc 1 982 12
.LVL435:
.LBB2078:
.LBB2079:
	.loc 2 58 2
	.loc 2 60 2
	li	a0,51392512
	addi	a0,a0,16
#APP
# 60 "include/type.h" 1
	lw a0, 0(a0)
# 0 "" 2
.LVL436:
	.loc 2 61 2
#NO_APP
.LBE2079:
.LBE2078:
	.loc 1 982 12
#APP
# 982 "dram/sun20iw1p1/mctl_standby-sun8iw20.c" 1
	fence i,r
# 0 "" 2
	.loc 1 982 12
	.loc 1 982 12
.LVL437:
#NO_APP
.LBE2077:
	.loc 1 983 2
.LBB2080:
.LBB2081:
.LBB2082:
	.loc 2 60 2 is_stmt 0
	li	a4,51392512
.LBE2082:
.LBE2081:
.LBE2080:
	.loc 1 983 4
	extu	a0,a0,20+8-1,20
.LVL438:
	.loc 1 784 15
	seqz	a0,a0
.LBB2087:
.LBB2085:
.LBB2083:
	.loc 2 60 2
	addi	a3,a4,24
.LVL439:
	.align	3
.L72:
.LBE2083:
.LBE2085:
.LBE2087:
	.loc 1 997 42 is_stmt 1
.LBB2088:
	.loc 1 997 9
	.loc 1 997 9
	.loc 1 997 9
	.loc 1 997 9
.LBB2086:
.LBB2084:
	.loc 2 58 2
	.loc 2 60 2
#APP
# 60 "include/type.h" 1
	lw a5, 0(a3)
# 0 "" 2
.LVL440:
	.loc 2 61 2
#NO_APP
.LBE2084:
.LBE2086:
	.loc 1 997 9
#APP
# 997 "dram/sun20iw1p1/mctl_standby-sun8iw20.c" 1
	fence i,r
# 0 "" 2
	.loc 1 997 9
	.loc 1 997 9
#NO_APP
.LBE2088:
	.loc 1 997 7 is_stmt 0
	andi	a5,a5,1
.LVL441:
	beqz	a5,.L72
	.loc 1 999 2 is_stmt 1
.LBB2089:
	.loc 1 999 12
	.loc 1 999 12
	.loc 1 999 12
	.loc 1 999 12
.LVL442:
.LBB2090:
.LBB2091:
	.loc 2 58 2
	.loc 2 60 2
	addi	a5,a4,140
#APP
# 60 "include/type.h" 1
	lw a2, 0(a5)
# 0 "" 2
.LVL443:
	.loc 2 61 2
#NO_APP
.LBE2091:
.LBE2090:
	.loc 1 999 12
#APP
# 999 "dram/sun20iw1p1/mctl_standby-sun8iw20.c" 1
	fence i,r
# 0 "" 2
	.loc 1 999 12
	.loc 1 999 12
.LVL444:
#NO_APP
.LBE2089:
	.loc 1 1000 2
	.loc 1 1001 2
.LBB2092:
	.loc 1 1001 2
#APP
# 1001 "dram/sun20iw1p1/mctl_standby-sun8iw20.c" 1
	fence w,o
# 0 "" 2
	.loc 1 1001 2
	.loc 1 1001 2
.LVL445:
#NO_APP
.LBB2093:
.LBB2094:
	.loc 2 37 2
.LBE2094:
.LBE2093:
.LBE2092:
	.loc 1 1000 10 is_stmt 0
	li	a1,-2147483648
	or	a2,a2,a1
.LVL446:
.LBB2097:
.LBB2096:
.LBB2095:
	.loc 2 37 2
#APP
# 37 "include/type.h" 1
	sw a2, 0(a5)
# 0 "" 2
.LVL447:
#NO_APP
.LBE2095:
.LBE2096:
	.loc 1 1001 2 is_stmt 1
	.loc 1 1001 2
.LBE2097:
	.loc 1 1002 2
.LBE2229:
.LBE2239:
	.loc 1 47 2
	.loc 1 48 2
	.loc 1 48 13
.LBB2240:
.LBB2230:
	.loc 1 1003 2
.LBB2098:
	.loc 1 1003 12
	.loc 1 1003 12
	.loc 1 1003 12
	.loc 1 1003 12
.LBB2099:
.LBB2100:
	.loc 2 58 2
	.loc 2 60 2
#APP
# 60 "include/type.h" 1
	lw a2, 0(a5)
# 0 "" 2
.LVL448:
	.loc 2 61 2
#NO_APP
.LBE2100:
.LBE2099:
	.loc 1 1003 12
#APP
# 1003 "dram/sun20iw1p1/mctl_standby-sun8iw20.c" 1
	fence i,r
# 0 "" 2
	.loc 1 1003 12
	.loc 1 1003 12
.LVL449:
#NO_APP
.LBE2098:
	.loc 1 1004 2
	.loc 1 1005 2
.LBB2101:
	.loc 1 1005 2
#APP
# 1005 "dram/sun20iw1p1/mctl_standby-sun8iw20.c" 1
	fence w,o
# 0 "" 2
	.loc 1 1005 2
	.loc 1 1005 2
.LVL450:
#NO_APP
.LBB2102:
.LBB2103:
	.loc 2 37 2
.LBE2103:
.LBE2102:
.LBE2101:
	.loc 1 1004 10 is_stmt 0
	extu	a2,a2,0+31-1,0
.LVL451:
.LBB2106:
.LBB2105:
.LBB2104:
	.loc 2 37 2
#APP
# 37 "include/type.h" 1
	sw a2, 0(a5)
# 0 "" 2
.LVL452:
#NO_APP
.LBE2104:
.LBE2105:
	.loc 1 1005 2 is_stmt 1
	.loc 1 1005 2
.LBE2106:
	.loc 1 1006 2
.LBE2230:
.LBE2240:
	.loc 1 47 2
	.loc 1 48 2
	.loc 1 48 13
.LBB2241:
.LBB2231:
	.loc 1 1009 2
.LBB2107:
	.loc 1 1009 12
	.loc 1 1009 12
	.loc 1 1009 12
	.loc 1 1009 12
.LBB2108:
.LBB2109:
	.loc 2 58 2
	.loc 2 60 2
	li	a5,51388416
	addi	a5,a5,20
#APP
# 60 "include/type.h" 1
	lw a3, 0(a5)
# 0 "" 2
.LVL453:
	.loc 2 61 2
#NO_APP
.LBE2109:
.LBE2108:
	.loc 1 1009 12
#APP
# 1009 "dram/sun20iw1p1/mctl_standby-sun8iw20.c" 1
	fence i,r
# 0 "" 2
	.loc 1 1009 12
	.loc 1 1009 12
.LVL454:
#NO_APP
.LBE2107:
	.loc 1 1010 2
	.loc 1 1011 2
.LBB2110:
	.loc 1 1011 2
#APP
# 1011 "dram/sun20iw1p1/mctl_standby-sun8iw20.c" 1
	fence w,o
# 0 "" 2
	.loc 1 1011 2
	.loc 1 1011 2
.LVL455:
#NO_APP
.LBB2111:
.LBB2112:
	.loc 2 37 2
.LBE2112:
.LBE2111:
.LBE2110:
	.loc 1 1010 10 is_stmt 0
	or	a3,a3,a1
.LVL456:
.LBB2115:
.LBB2114:
.LBB2113:
	.loc 2 37 2
#APP
# 37 "include/type.h" 1
	sw a3, 0(a5)
# 0 "" 2
.LVL457:
#NO_APP
.LBE2113:
.LBE2114:
	.loc 1 1011 2 is_stmt 1
	.loc 1 1011 2
.LBE2115:
	.loc 1 1012 2
.LBE2231:
.LBE2241:
	.loc 1 47 2
	.loc 1 48 2
	.loc 1 48 13
.LBB2242:
.LBB2232:
	.loc 1 1014 2
.LBB2116:
	.loc 1 1014 12
	.loc 1 1014 12
	.loc 1 1014 12
	.loc 1 1014 12
.LBB2117:
.LBB2118:
	.loc 2 58 2
	.loc 2 60 2
	addi	a3,a4,268
#APP
# 60 "include/type.h" 1
	lw a2, 0(a3)
# 0 "" 2
.LVL458:
	.loc 2 61 2
#NO_APP
.LBE2118:
.LBE2117:
	.loc 1 1014 12
#APP
# 1014 "dram/sun20iw1p1/mctl_standby-sun8iw20.c" 1
	fence i,r
# 0 "" 2
	.loc 1 1014 12
	.loc 1 1014 12
.LVL459:
#NO_APP
.LBE2116:
	.loc 1 1015 2
	.loc 1 1016 2
.LBB2119:
	.loc 1 1016 2
#APP
# 1016 "dram/sun20iw1p1/mctl_standby-sun8iw20.c" 1
	fence w,o
# 0 "" 2
	.loc 1 1016 2
	.loc 1 1016 2
.LVL460:
#NO_APP
.LBB2120:
.LBB2121:
	.loc 2 37 2
.LBE2121:
.LBE2120:
.LBE2119:
	.loc 1 1015 10 is_stmt 0
	li	a5,-100663296
	addi	a5,a5,-1
	and	a5,a5,a2
.LBB2124:
.LBB2123:
.LBB2122:
	.loc 2 37 2
#APP
# 37 "include/type.h" 1
	sw a5, 0(a3)
# 0 "" 2
.LVL461:
#NO_APP
.LBE2122:
.LBE2123:
	.loc 1 1016 2 is_stmt 1
	.loc 1 1016 2
.LBE2124:
	.loc 1 1022 2
	.loc 1 1022 4 is_stmt 0
	li	a5,1
	bne	s1,a5,.L75
	.loc 1 1024 3 is_stmt 1
.LBB2125:
	.loc 1 1024 13
	.loc 1 1024 13
	.loc 1 1024 13
	.loc 1 1024 13
.LVL462:
.LBB2126:
.LBB2127:
	.loc 2 58 2
	.loc 2 60 2
	addi	a4,a4,284
#APP
# 60 "include/type.h" 1
	lw a5, 0(a4)
# 0 "" 2
.LVL463:
	.loc 2 61 2
#NO_APP
.LBE2127:
.LBE2126:
	.loc 1 1024 13
#APP
# 1024 "dram/sun20iw1p1/mctl_standby-sun8iw20.c" 1
	fence i,r
# 0 "" 2
	.loc 1 1024 13
	.loc 1 1024 13
.LVL464:
#NO_APP
.LBE2125:
	.loc 1 1025 3
	.loc 1 1025 11 is_stmt 0
	andi	a5,a5,-193
.LVL465:
	sext.w	a5,a5
.LVL466:
	.loc 1 1026 3 is_stmt 1
	.loc 1 1027 3
.LBB2128:
	.loc 1 1027 3
#APP
# 1027 "dram/sun20iw1p1/mctl_standby-sun8iw20.c" 1
	fence w,o
# 0 "" 2
	.loc 1 1027 3
	.loc 1 1027 3
.LVL467:
#NO_APP
.LBB2129:
.LBB2130:
	.loc 2 37 2
.LBE2130:
.LBE2129:
.LBE2128:
	.loc 1 1026 11 is_stmt 0
	ori	a5,a5,64
.LVL468:
.LBB2133:
.LBB2132:
.LBB2131:
	.loc 2 37 2
#APP
# 37 "include/type.h" 1
	sw a5, 0(a4)
# 0 "" 2
.LVL469:
#NO_APP
.L75:
.LBE2131:
.LBE2132:
	.loc 1 1027 3 is_stmt 1
	.loc 1 1027 3
.LBE2133:
	.loc 1 1030 2
.LBE2232:
.LBE2242:
	.loc 1 1071 2
	.loc 1 1072 1 is_stmt 0
	ld	ra,56(sp)
	.cfi_remember_state
	.cfi_restore 1
	ldd	s0,s1,(sp),0,4
	.cfi_restore 9
	.cfi_restore 8
.LVL470:
	ld	s6,48(sp)
	.cfi_restore 22
	ldd	s2,s3,(sp),1,4
	.cfi_restore 19
	.cfi_restore 18
	ldd	s4,s5,(sp),2,4
	.cfi_restore 21
	.cfi_restore 20
	addi	sp,sp,64
	.cfi_def_cfa_offset 0
	jr	ra
.LVL471:
	.align	2
.L95:
	.cfi_restore_state
.LBB2243:
.LBB1918:
	.loc 1 351 3 is_stmt 1
.LBB1910:
.LBB1911:
	.loc 1 326 2
	.loc 1 327 2
	.loc 1 327 19 is_stmt 0
	li	a1,8192
	addiw	a1,a1,-392
	mulw	a1,a5,a1
	.loc 1 327 52
	li	a2,1000
.LBE1911:
.LBE1910:
.LBB1912:
.LBB1913:
	.loc 1 327 19
	li	a4,328
.LVL472:
	j	.L93
.LVL473:
	.align	2
.L57:
.LBE1913:
.LBE1912:
.LBE1918:
.LBE2243:
.LBB2244:
.LBB2233:
	.loc 1 814 4 is_stmt 1
	.loc 1 814 12 is_stmt 0
	li	a5,-61440
	addi	a5,a5,-1551
	and	a4,a4,a5
.LVL474:
	.loc 1 815 4 is_stmt 1
	.loc 1 815 12 is_stmt 0
	ori	a4,a4,1024
.LVL475:
	j	.L58
.LVL476:
	.align	2
.L55:
	.loc 1 814 4 is_stmt 1
	.loc 1 814 12 is_stmt 0
	li	a3,-61440
	addi	a3,a3,-1551
	and	a5,a5,a3
.LVL477:
	.loc 1 815 4 is_stmt 1
	.loc 1 815 12 is_stmt 0
	ori	a5,a5,1024
.LVL478:
	j	.L56
.LVL479:
	.align	2
.L64:
	.loc 1 900 3 is_stmt 1
.LBB2134:
	.loc 1 900 13
	.loc 1 900 13
	.loc 1 900 13
	.loc 1 900 13
.LBB2135:
.LBB2136:
	.loc 2 58 2
	.loc 2 60 2
	li	a4,51392512
	addi	a4,a4,192
#APP
# 60 "include/type.h" 1
	lw a5, 0(a4)
# 0 "" 2
.LVL480:
	.loc 2 61 2
#NO_APP
.LBE2136:
.LBE2135:
	.loc 1 900 13
#APP
# 900 "dram/sun20iw1p1/mctl_standby-sun8iw20.c" 1
	fence i,r
# 0 "" 2
	.loc 1 900 13
	.loc 1 900 13
.LVL481:
#NO_APP
.LBE2134:
	.loc 1 901 3
	.loc 1 901 11 is_stmt 0
	li	a3,-268435456
	and	a5,a5,a3
.LVL482:
	.loc 1 902 3 is_stmt 1
	.loc 1 903 3
.LBB2137:
	.loc 1 903 3
#APP
# 903 "dram/sun20iw1p1/mctl_standby-sun8iw20.c" 1
	fence w,o
# 0 "" 2
	.loc 1 903 3
	.loc 1 903 3
.LVL483:
#NO_APP
.LBB1995:
.LBB1996:
	.loc 2 37 2
.LBE1996:
.LBE1995:
.LBE2137:
	.loc 1 902 11 is_stmt 0
	li	a3,16789504
	addi	a3,a3,135
	or	a5,a5,a3
.LVL484:
.LBB2138:
.LBB1998:
.LBB1997:
	.loc 2 37 2
#APP
# 37 "include/type.h" 1
	sw a5, 0(a4)
# 0 "" 2
#NO_APP
	j	.L65
.LVL485:
	.align	2
.L96:
.LBE1997:
.LBE1998:
.LBE2138:
	.loc 1 919 3 is_stmt 1
	.loc 1 920 3
.LBB2139:
	.loc 1 920 3
#APP
# 920 "dram/sun20iw1p1/mctl_standby-sun8iw20.c" 1
	fence w,o
# 0 "" 2
	.loc 1 920 3
	.loc 1 920 3
.LVL486:
#NO_APP
.LBB2140:
.LBB2141:
	.loc 2 37 2
	li	a5,82
#APP
# 37 "include/type.h" 1
	sw a5, 0(a4)
# 0 "" 2
.LVL487:
#NO_APP
.LBE2141:
.LBE2140:
	.loc 1 920 3
	.loc 1 920 3
.LBE2139:
	.loc 1 921 3
	.loc 1 922 3
.LBB2142:
	.loc 1 922 3
#APP
# 922 "dram/sun20iw1p1/mctl_standby-sun8iw20.c" 1
	fence w,o
# 0 "" 2
	.loc 1 922 3
	.loc 1 922 3
.LVL488:
#NO_APP
.LBB2143:
.LBB2144:
	.loc 2 37 2
	li	a5,83
#APP
# 37 "include/type.h" 1
	sw a5, 0(a4)
# 0 "" 2
#NO_APP
.LBE2144:
.LBE2143:
.LBE2142:
.LBB2145:
.LBB2146:
.LBB2147:
	.loc 2 60 2 is_stmt 0
	addi	a4,a4,16
	.align	3
.L67:
.LBE2147:
.LBE2146:
.LBE2145:
	.loc 1 923 43 is_stmt 1
.LBB2150:
	.loc 1 923 10
	.loc 1 923 10
	.loc 1 923 10
	.loc 1 923 10
.LVL489:
.LBB2149:
.LBB2148:
	.loc 2 58 2
	.loc 2 60 2
#APP
# 60 "include/type.h" 1
	lw a5, 0(a4)
# 0 "" 2
.LVL490:
	.loc 2 61 2
#NO_APP
.LBE2148:
.LBE2149:
	.loc 1 923 10
#APP
# 923 "dram/sun20iw1p1/mctl_standby-sun8iw20.c" 1
	fence i,r
# 0 "" 2
	.loc 1 923 10
	.loc 1 923 10
#NO_APP
.LBE2150:
	.loc 1 923 8 is_stmt 0
	andi	a5,a5,1
.LVL491:
	beqz	a5,.L67
	li	a3,33
	.loc 1 925 11
	li	a2,32
	j	.L66
.LVL492:
	.align	2
.L71:
	.loc 1 964 3 is_stmt 1
.LBB2151:
	.loc 1 964 13
	.loc 1 964 13
	.loc 1 964 13
	.loc 1 964 13
.LBB2152:
.LBB2153:
	.loc 2 58 2
	.loc 2 60 2
	addi	a3,a4,264
#APP
# 60 "include/type.h" 1
	lw a5, 0(a3)
# 0 "" 2
.LVL493:
	.loc 2 61 2
#NO_APP
.LBE2153:
.LBE2152:
	.loc 1 964 13
#APP
# 964 "dram/sun20iw1p1/mctl_standby-sun8iw20.c" 1
	fence i,r
# 0 "" 2
	.loc 1 964 13
	.loc 1 964 13
.LVL494:
#NO_APP
.LBE2151:
	.loc 1 965 3
	.loc 1 966 3
.LBB2154:
	.loc 1 966 3
#APP
# 966 "dram/sun20iw1p1/mctl_standby-sun8iw20.c" 1
	fence w,o
# 0 "" 2
	.loc 1 966 3
	.loc 1 966 3
.LVL495:
#NO_APP
.LBB2155:
.LBB2156:
	.loc 2 37 2
.LBE2156:
.LBE2155:
.LBE2154:
	.loc 1 965 11 is_stmt 0
	andi	a5,a5,-193
.LVL496:
.LBB2159:
.LBB2158:
.LBB2157:
	.loc 2 37 2
#APP
# 37 "include/type.h" 1
	sw a5, 0(a3)
# 0 "" 2
.LVL497:
#NO_APP
.LBE2157:
.LBE2158:
	.loc 1 966 3 is_stmt 1
	.loc 1 966 3
.LBE2159:
	.loc 1 968 3
.LBB2160:
	.loc 1 968 13
	.loc 1 968 13
	.loc 1 968 13
	.loc 1 968 13
.LBB2161:
.LBB2162:
	.loc 2 58 2
	.loc 2 60 2
	addi	a3,a4,268
#APP
# 60 "include/type.h" 1
	lw a2, 0(a3)
# 0 "" 2
.LVL498:
	.loc 2 61 2
#NO_APP
.LBE2162:
.LBE2161:
	.loc 1 968 13
#APP
# 968 "dram/sun20iw1p1/mctl_standby-sun8iw20.c" 1
	fence i,r
# 0 "" 2
	.loc 1 968 13
	.loc 1 968 13
.LVL499:
#NO_APP
.LBE2160:
	.loc 1 969 3
	.loc 1 969 11 is_stmt 0
	li	a5,-100663296
	addiw	a5,a5,-1
	and	a5,a5,a2
.LVL500:
	.loc 1 970 3 is_stmt 1
	.loc 1 971 3
.LBB2163:
	.loc 1 971 3
#APP
# 971 "dram/sun20iw1p1/mctl_standby-sun8iw20.c" 1
	fence w,o
# 0 "" 2
	.loc 1 971 3
	.loc 1 971 3
.LVL501:
#NO_APP
.LBB2164:
.LBB2165:
	.loc 2 37 2
.LBE2165:
.LBE2164:
.LBE2163:
	.loc 1 970 11 is_stmt 0
	li	a2,33554432
.LVL502:
	or	a5,a5,a2
.LVL503:
.LBB2168:
.LBB2167:
.LBB2166:
	.loc 2 37 2
#APP
# 37 "include/type.h" 1
	sw a5, 0(a3)
# 0 "" 2
.LVL504:
#NO_APP
.LBE2166:
.LBE2167:
	.loc 1 971 3 is_stmt 1
	.loc 1 971 3
.LBE2168:
	.loc 1 972 3
.LBE2233:
.LBE2244:
	.loc 1 47 2
	.loc 1 48 2
	.loc 1 48 13
.LBB2245:
.LBB2234:
	.loc 1 974 3
	.loc 1 975 3
.LBB2169:
	.loc 1 975 3
#APP
# 975 "dram/sun20iw1p1/mctl_standby-sun8iw20.c" 1
	fence w,o
# 0 "" 2
	.loc 1 975 3
	.loc 1 975 3
.LVL505:
#NO_APP
.LBB2170:
.LBB2171:
	.loc 2 37 2
	li	a5,1025
#APP
# 37 "include/type.h" 1
	sw a5, 0(a4)
# 0 "" 2
#NO_APP
.LBE2171:
.LBE2170:
.LBE2169:
.LBB2172:
.LBB2173:
.LBB2174:
	.loc 2 60 2 is_stmt 0
	li	a4,51392512
	addi	a4,a4,16
	.align	3
.L73:
.LBE2174:
.LBE2173:
.LBE2172:
	.loc 1 976 43 is_stmt 1
.LBB2177:
	.loc 1 976 10
	.loc 1 976 10
	.loc 1 976 10
	.loc 1 976 10
.LVL506:
.LBB2176:
.LBB2175:
	.loc 2 58 2
	.loc 2 60 2
#APP
# 60 "include/type.h" 1
	lw a5, 0(a4)
# 0 "" 2
.LVL507:
	.loc 2 61 2
#NO_APP
.LBE2175:
.LBE2176:
	.loc 1 976 10
#APP
# 976 "dram/sun20iw1p1/mctl_standby-sun8iw20.c" 1
	fence i,r
# 0 "" 2
	.loc 1 976 10
	.loc 1 976 10
#NO_APP
.LBE2177:
	.loc 1 976 8 is_stmt 0
	andi	a5,a5,1
.LVL508:
	beqz	a5,.L73
	j	.L74
.LVL509:
	.align	2
.L94:
.LBE2234:
.LBE2245:
.LBB2246:
.LBB1919:
	.loc 1 346 3 is_stmt 1
.LBB1914:
.LBB1915:
	.loc 1 326 2
	.loc 1 327 2
	.loc 1 327 19 is_stmt 0
	li	a1,8192
	addiw	a1,a1,-392
	mulw	a1,a5,a1
	.loc 1 327 52
	li	a2,1000
.LBE1915:
.LBE1914:
.LBB1916:
.LBB1917:
	.loc 1 327 19
	li	a4,350
.LVL510:
	j	.L93
.LVL511:
	.align	2
.L60:
.LBE1917:
.LBE1916:
.LBE1919:
.LBE2246:
.LBB2247:
.LBB2235:
	.loc 1 846 4 is_stmt 1
.LBB2178:
	.loc 1 846 14
	.loc 1 846 14
	.loc 1 846 14
	.loc 1 846 14
.LBB2179:
.LBB2180:
	.loc 2 58 2
	.loc 2 60 2
	addi	a4,s2,264
#APP
# 60 "include/type.h" 1
	lw a5, 0(a4)
# 0 "" 2
.LVL512:
	.loc 2 61 2
#NO_APP
.LBE2180:
.LBE2179:
	.loc 1 846 14
#APP
# 846 "dram/sun20iw1p1/mctl_standby-sun8iw20.c" 1
	fence i,r
# 0 "" 2
	.loc 1 846 14
	.loc 1 846 14
.LVL513:
#NO_APP
.LBE2178:
	.loc 1 847 4
	.loc 1 847 12 is_stmt 0
	andi	a5,a5,-193
.LVL514:
	sext.w	a5,a5
.LVL515:
	.loc 1 848 4 is_stmt 1
	.loc 1 849 4
.LBB2181:
	.loc 1 849 4
#APP
# 849 "dram/sun20iw1p1/mctl_standby-sun8iw20.c" 1
	fence w,o
# 0 "" 2
	.loc 1 849 4
	.loc 1 849 4
.LVL516:
#NO_APP
.LBB2182:
.LBB2183:
	.loc 2 37 2
.LBE2183:
.LBE2182:
.LBE2181:
	.loc 1 848 12 is_stmt 0
	ori	a5,a5,128
.LVL517:
.LBB2186:
.LBB2185:
.LBB2184:
	.loc 2 37 2
#APP
# 37 "include/type.h" 1
	sw a5, 0(a4)
# 0 "" 2
.LVL518:
#NO_APP
.LBE2184:
.LBE2185:
	.loc 1 849 4 is_stmt 1
	.loc 1 849 4
.LBE2186:
	.loc 1 851 4
.LBB2187:
	.loc 1 851 16
	.loc 1 851 16
	.loc 1 851 16
	.loc 1 851 16
.LBB2188:
.LBB2189:
	.loc 2 58 2
	.loc 2 60 2
	addi	a4,s2,96
#APP
# 60 "include/type.h" 1
	lw a4, 0(a4)
# 0 "" 2
.LVL519:
	.loc 2 61 2
#NO_APP
.LBE2189:
.LBE2188:
	.loc 1 851 16
#APP
# 851 "dram/sun20iw1p1/mctl_standby-sun8iw20.c" 1
	fence i,r
# 0 "" 2
	.loc 1 851 16
	.loc 1 851 16
.LVL520:
#NO_APP
.LBE2187:
	.loc 1 852 4
.LBB2190:
	.loc 1 852 14
	.loc 1 852 14
	.loc 1 852 14
	.loc 1 852 14
.LBB2191:
.LBB2192:
	.loc 2 58 2
	.loc 2 60 2
	addi	a3,s2,188
#APP
# 60 "include/type.h" 1
	lw a5, 0(a3)
# 0 "" 2
.LVL521:
	.loc 2 61 2
#NO_APP
.LBE2192:
.LBE2191:
	.loc 1 852 14
#APP
# 852 "dram/sun20iw1p1/mctl_standby-sun8iw20.c" 1
	fence i,r
# 0 "" 2
	.loc 1 852 14
	.loc 1 852 14
.LVL522:
#NO_APP
.LBE2190:
	.loc 1 853 4
	.loc 1 854 4
	.loc 1 851 45 is_stmt 0
	extu	a4,a4,16+5-1,16
.LVL523:
	.loc 1 851 12
	addiw	a4,a4,-2
	.loc 1 853 12
	andi	a5,a5,-264
.LVL524:
	.loc 1 854 12
	or	a5,a5,a4
	sext.w	a5,a5
.LVL525:
	.loc 1 855 4 is_stmt 1
.LBB2193:
	.loc 1 855 4
#APP
# 855 "dram/sun20iw1p1/mctl_standby-sun8iw20.c" 1
	fence w,o
# 0 "" 2
	.loc 1 855 4
	.loc 1 855 4
.LVL526:
#NO_APP
.LBB2194:
.LBB2195:
	.loc 2 37 2
.LBE2195:
.LBE2194:
.LBE2193:
	.loc 1 854 12 is_stmt 0
	ori	a5,a5,256
.LVL527:
.LBB2198:
.LBB2197:
.LBB2196:
	.loc 2 37 2
#APP
# 37 "include/type.h" 1
	sw a5, 0(a3)
# 0 "" 2
.LVL528:
#NO_APP
.LBE2196:
.LBE2197:
	.loc 1 855 4 is_stmt 1
	.loc 1 855 4
.LBE2198:
	.loc 1 857 4
.LBB2199:
	.loc 1 857 14
	.loc 1 857 14
	.loc 1 857 14
	.loc 1 857 14
.LBB2200:
.LBB2201:
	.loc 2 58 2
	.loc 2 60 2
	addi	s2,s2,284
#APP
# 60 "include/type.h" 1
	lw a5, 0(s2)
# 0 "" 2
.LVL529:
	.loc 2 61 2
#NO_APP
.LBE2201:
.LBE2200:
	.loc 1 857 14
#APP
# 857 "dram/sun20iw1p1/mctl_standby-sun8iw20.c" 1
	fence i,r
# 0 "" 2
	.loc 1 857 14
	.loc 1 857 14
.LVL530:
#NO_APP
.LBE2199:
	.loc 1 858 4
	.loc 1 859 4
	.loc 1 860 4
.LBB2202:
	.loc 1 860 4
#APP
# 860 "dram/sun20iw1p1/mctl_standby-sun8iw20.c" 1
	fence w,o
# 0 "" 2
	.loc 1 860 4
	.loc 1 860 4
.LVL531:
#NO_APP
.LBB2203:
.LBB2204:
	.loc 2 37 2
.LBE2204:
.LBE2203:
.LBE2202:
	.loc 1 859 12 is_stmt 0
	li	a4,134217728
	extu	a5,a5,0+31-1,0
.LVL532:
	or	a5,a5,a4
.LBB2207:
.LBB2206:
.LBB2205:
	.loc 2 37 2
#APP
# 37 "include/type.h" 1
	sw a5, 0(s2)
# 0 "" 2
#NO_APP
	j	.L62
.LVL533:
	.align	2
.L59:
.LBE2205:
.LBE2206:
.LBE2207:
	.loc 1 835 4 is_stmt 1
.LBB2208:
	.loc 1 835 14
	.loc 1 835 14
	.loc 1 835 14
	.loc 1 835 14
.LBB2209:
.LBB2210:
	.loc 2 58 2
	.loc 2 60 2
	addi	a4,s2,264
#APP
# 60 "include/type.h" 1
	lw a5, 0(a4)
# 0 "" 2
.LVL534:
	.loc 2 61 2
#NO_APP
.LBE2210:
.LBE2209:
	.loc 1 835 14
#APP
# 835 "dram/sun20iw1p1/mctl_standby-sun8iw20.c" 1
	fence i,r
# 0 "" 2
	.loc 1 835 14
	.loc 1 835 14
.LVL535:
#NO_APP
.LBE2208:
	.loc 1 836 4
	.loc 1 837 4
.LBB2211:
	.loc 1 837 4
#APP
# 837 "dram/sun20iw1p1/mctl_standby-sun8iw20.c" 1
	fence w,o
# 0 "" 2
	.loc 1 837 4
	.loc 1 837 4
.LVL536:
#NO_APP
.LBB2212:
.LBB2213:
	.loc 2 37 2
.LBE2213:
.LBE2212:
.LBE2211:
	.loc 1 836 12 is_stmt 0
	andi	a5,a5,-193
.LVL537:
.LBB2216:
.LBB2215:
.LBB2214:
	.loc 2 37 2
#APP
# 37 "include/type.h" 1
	sw a5, 0(a4)
# 0 "" 2
.LVL538:
#NO_APP
.LBE2214:
.LBE2215:
	.loc 1 837 4 is_stmt 1
	.loc 1 837 4
.LBE2216:
	.loc 1 839 4
.LBB2217:
	.loc 1 839 14
	.loc 1 839 14
	.loc 1 839 14
	.loc 1 839 14
.LBB2218:
.LBB2219:
	.loc 2 58 2
	.loc 2 60 2
	addi	s2,s2,188
#APP
# 60 "include/type.h" 1
	lw a5, 0(s2)
# 0 "" 2
.LVL539:
	.loc 2 61 2
#NO_APP
.LBE2219:
.LBE2218:
	.loc 1 839 14
#APP
# 839 "dram/sun20iw1p1/mctl_standby-sun8iw20.c" 1
	fence i,r
# 0 "" 2
	.loc 1 839 14
	.loc 1 839 14
.LVL540:
#NO_APP
.LBE2217:
	.loc 1 840 4
	.loc 1 841 4
.LBB2220:
	.loc 1 841 4
#APP
# 841 "dram/sun20iw1p1/mctl_standby-sun8iw20.c" 1
	fence w,o
# 0 "" 2
	.loc 1 841 4
	.loc 1 841 4
.LVL541:
#NO_APP
.LBB2221:
.LBB2222:
	.loc 2 37 2
.LBE2222:
.LBE2221:
.LBE2220:
	.loc 1 840 12 is_stmt 0
	andi	a5,a5,-264
.LVL542:
.LBB2225:
.LBB2224:
.LBB2223:
	.loc 2 37 2
#APP
# 37 "include/type.h" 1
	sw a5, 0(s2)
# 0 "" 2
#NO_APP
	j	.L62
.LBE2223:
.LBE2224:
.LBE2225:
.LBE2235:
.LBE2247:
	.cfi_endproc
.LFE22:
	.size	mctl_core_init_standby, .-mctl_core_init_standby
	.align	1
	.align	4
	.globl	init_DRAM_standby
	.type	init_DRAM_standby, @function
init_DRAM_standby:
.LFB23:
	.loc 1 1079 1 is_stmt 1
	.cfi_startproc
.LVL543:
	.loc 1 1080 2
	.loc 1 1081 2
	.loc 1 1083 2
	.loc 1 1089 5
	.loc 1 1089 8 is_stmt 0
	lw	a5,92(a1)
	.loc 1 1079 1
	addi	sp,sp,-16
	.cfi_def_cfa_offset 16
	sd	s0,0(sp)
	sd	ra,8(sp)
	.cfi_offset 8, -16
	.cfi_offset 1, -8
	.loc 1 1089 7
	slli	a4,a5,47
	.loc 1 1079 1
	mv	s0,a1
	.loc 1 1089 7
	bltz	a4,.L98
	.loc 1 1093 8 is_stmt 1
.LBB2248:
	.loc 1 1093 8
#APP
# 1093 "dram/sun20iw1p1/mctl_standby-sun8iw20.c" 1
	fence w,o
# 0 "" 2
	.loc 1 1093 8
	.loc 1 1093 8
.LVL544:
#NO_APP
.LBB2249:
.LBB2250:
	.loc 2 37 2
	li	a5,117506048
	li	a4,0
	addi	a5,a5,596
#APP
# 37 "include/type.h" 1
	sw a4, 0(a5)
# 0 "" 2
.LVL545:
#NO_APP
.LBE2250:
.LBE2249:
	.loc 1 1093 8
	.loc 1 1093 8
.LBE2248:
	.loc 1 1094 8
.LBB2251:
	.loc 1 1094 18
	.loc 1 1094 18
	.loc 1 1094 18
	.loc 1 1094 18
.LBB2252:
.LBB2253:
	.loc 2 58 2
	.loc 2 60 2
	li	a5,50331648
	addi	a5,a5,352
#APP
# 60 "include/type.h" 1
	lw a4, 0(a5)
# 0 "" 2
.LVL546:
	.loc 2 61 2
#NO_APP
.LBE2253:
.LBE2252:
	.loc 1 1094 18
#APP
# 1094 "dram/sun20iw1p1/mctl_standby-sun8iw20.c" 1
	fence i,r
# 0 "" 2
	.loc 1 1094 18
	.loc 1 1094 18
.LVL547:
#NO_APP
.LBE2251:
	.loc 1 1095 8
	.loc 1 1096 8
.LBB2254:
	.loc 1 1096 8
#APP
# 1096 "dram/sun20iw1p1/mctl_standby-sun8iw20.c" 1
	fence w,o
# 0 "" 2
	.loc 1 1096 8
	.loc 1 1096 8
.LVL548:
#NO_APP
.LBB2255:
.LBB2256:
	.loc 2 37 2
.LBE2256:
.LBE2255:
.LBE2254:
	.loc 1 1095 16 is_stmt 0
	andi	a4,a4,-4
.LVL549:
.LBB2259:
.LBB2258:
.LBB2257:
	.loc 2 37 2
#APP
# 37 "include/type.h" 1
	sw a4, 0(a5)
# 0 "" 2
.LVL550:
#NO_APP
.LBE2257:
.LBE2258:
	.loc 1 1096 8 is_stmt 1
	.loc 1 1096 8
.LBE2259:
	.loc 1 1097 8
	.loc 1 36 2
	.loc 1 37 2
	.loc 1 37 13
	.loc 1 1098 8
.LBB2260:
	.loc 1 1098 18
	.loc 1 1098 18
	.loc 1 1098 18
	.loc 1 1098 18
.LBB2261:
.LBB2262:
	.loc 2 58 2
	.loc 2 60 2
#APP
# 60 "include/type.h" 1
	lw a4, 0(a5)
# 0 "" 2
.LVL551:
	.loc 2 61 2
#NO_APP
.LBE2262:
.LBE2261:
	.loc 1 1098 18
#APP
# 1098 "dram/sun20iw1p1/mctl_standby-sun8iw20.c" 1
	fence i,r
# 0 "" 2
	.loc 1 1098 18
	.loc 1 1098 18
.LVL552:
#NO_APP
.LBE2260:
	.loc 1 1099 8
	.loc 1 1100 8
	.loc 1 1101 8
.LBB2263:
	.loc 1 1101 8
#APP
# 1101 "dram/sun20iw1p1/mctl_standby-sun8iw20.c" 1
	fence w,o
# 0 "" 2
	.loc 1 1101 8
	.loc 1 1101 8
.LVL553:
#NO_APP
.LBB2264:
.LBB2265:
	.loc 2 37 2
.LBE2265:
.LBE2264:
.LBE2263:
	.loc 1 1100 16 is_stmt 0
	andi	a4,a4,-265
.LVL554:
.LBB2268:
.LBB2267:
.LBB2266:
	.loc 2 37 2
#APP
# 37 "include/type.h" 1
	sw a4, 0(a5)
# 0 "" 2
.LVL555:
#NO_APP
.LBE2266:
.LBE2267:
	.loc 1 1101 8 is_stmt 1
	.loc 1 1101 8
.LBE2268:
	.loc 1 1102 8
.LBB2269:
	.loc 1 1102 18
	.loc 1 1102 18
	.loc 1 1102 18
	.loc 1 1102 18
.LBB2270:
.LBB2271:
	.loc 2 58 2
	.loc 2 60 2
#APP
# 60 "include/type.h" 1
	lw a4, 0(a5)
# 0 "" 2
.LVL556:
	.loc 2 61 2
#NO_APP
.LBE2271:
.LBE2270:
	.loc 1 1102 18
#APP
# 1102 "dram/sun20iw1p1/mctl_standby-sun8iw20.c" 1
	fence i,r
# 0 "" 2
	.loc 1 1102 18
	.loc 1 1102 18
.LVL557:
#NO_APP
.LBE2269:
	.loc 1 1103 8
	.loc 1 1104 8
.LBB2272:
	.loc 1 1104 8
#APP
# 1104 "dram/sun20iw1p1/mctl_standby-sun8iw20.c" 1
	fence w,o
# 0 "" 2
	.loc 1 1104 8
	.loc 1 1104 8
.LVL558:
#NO_APP
.LBB2273:
.LBB2274:
	.loc 2 37 2
.LBE2274:
.LBE2273:
.LBE2272:
	.loc 1 1103 16 is_stmt 0
	ori	a4,a4,2
.LVL559:
.LBB2277:
.LBB2276:
.LBB2275:
	.loc 2 37 2
#APP
# 37 "include/type.h" 1
	sw a4, 0(a5)
# 0 "" 2
.LVL560:
#NO_APP
.LBE2275:
.LBE2276:
	.loc 1 1104 8 is_stmt 1
	.loc 1 1104 8
.LBE2277:
	.loc 1 1105 8
	.loc 1 36 2
	.loc 1 37 2
	.loc 1 37 13
	.loc 1 1106 8
.LBB2278:
	.loc 1 1106 18
	.loc 1 1106 18
	.loc 1 1106 18
	.loc 1 1106 18
.LBB2279:
.LBB2280:
	.loc 2 58 2
	.loc 2 60 2
#APP
# 60 "include/type.h" 1
	lw a4, 0(a5)
# 0 "" 2
.LVL561:
	.loc 2 61 2
#NO_APP
.LBE2280:
.LBE2279:
	.loc 1 1106 18
#APP
# 1106 "dram/sun20iw1p1/mctl_standby-sun8iw20.c" 1
	fence i,r
# 0 "" 2
	.loc 1 1106 18
	.loc 1 1106 18
.LVL562:
#NO_APP
.LBE2278:
	.loc 1 1107 8
	.loc 1 1108 8
.LBB2281:
	.loc 1 1108 8
#APP
# 1108 "dram/sun20iw1p1/mctl_standby-sun8iw20.c" 1
	fence w,o
# 0 "" 2
	.loc 1 1108 8
	.loc 1 1108 8
.LVL563:
#NO_APP
.LBB2282:
.LBB2283:
	.loc 2 37 2
.LBE2283:
.LBE2282:
.LBE2281:
	.loc 1 1107 16 is_stmt 0
	ori	a4,a4,1
.LVL564:
.LBB2286:
.LBB2285:
.LBB2284:
	.loc 2 37 2
#APP
# 37 "include/type.h" 1
	sw a4, 0(a5)
# 0 "" 2
.LVL565:
#NO_APP
.L99:
.LBE2284:
.LBE2285:
.LBE2286:
	.loc 1 1132 85 is_stmt 1
	.loc 1 1133 52
	.loc 1 1134 2
	.loc 1 1134 12 is_stmt 0
	mv	a0,s0
.LVL566:
	call	mctl_core_init_standby
.LVL567:
	sext.w	a5,a0
.LVL568:
	.loc 1 1135 2 is_stmt 1
	.loc 1 1138 10 is_stmt 0
	li	a0,0
	.loc 1 1135 4
	beqz	a5,.L100
	.loc 1 1140 50 is_stmt 1
	.loc 1 1144 2
	.loc 1 1144 32 is_stmt 0
	lhu	a0,22(s0)
	.loc 1 1144 12
	extu	a0,a0,0+15-1,0
	sext.w	a0,a0
.LVL569:
	.loc 1 1148 2 is_stmt 1
.LBB2287:
	.loc 1 1148 2
#APP
# 1148 "dram/sun20iw1p1/mctl_standby-sun8iw20.c" 1
	fence w,o
# 0 "" 2
	.loc 1 1148 2
	.loc 1 1148 2
.LVL570:
#NO_APP
.LBB2288:
.LBB2289:
	.loc 2 37 2
.LBE2289:
.LBE2288:
	.loc 1 1148 2 is_stmt 0
	lla	a4,.LANCHOR0
.LBB2291:
.LBB2290:
	.loc 2 37 2
	li	a5,51392512
.LVL571:
	lw	a3,48(a4)
	addi	a2,a5,156
#APP
# 37 "include/type.h" 1
	sw a3, 0(a2)
# 0 "" 2
.LVL572:
#NO_APP
.LBE2290:
.LBE2291:
	.loc 1 1148 2 is_stmt 1
	.loc 1 1148 2
.LBE2287:
	.loc 1 1149 2
.LBB2292:
	.loc 1 1149 2
#APP
# 1149 "dram/sun20iw1p1/mctl_standby-sun8iw20.c" 1
	fence w,o
# 0 "" 2
	.loc 1 1149 2
	.loc 1 1149 2
.LVL573:
#NO_APP
.LBB2293:
.LBB2294:
	.loc 2 37 2
	lw	a4,52(a4)
	addi	a3,a5,160
#APP
# 37 "include/type.h" 1
	sw a4, 0(a3)
# 0 "" 2
.LVL574:
#NO_APP
.LBE2294:
.LBE2293:
	.loc 1 1149 2
	.loc 1 1149 2
.LBE2292:
	.loc 1 1151 2
	.loc 1 1151 5 is_stmt 0
	lw	a4,92(s0)
.LBB2295:
.LBB2296:
.LBB2297:
	.loc 2 60 2
	addi	a5,a5,4
.LBE2297:
.LBE2296:
.LBE2295:
	.loc 1 1151 4
	slli	a3,a4,33
	bltz	a3,.L116
	.loc 1 1160 3 is_stmt 1
.LBB2300:
	.loc 1 1160 13
	.loc 1 1160 13
	.loc 1 1160 13
	.loc 1 1160 13
.LVL575:
.LBB2301:
.LBB2302:
	.loc 2 58 2
	.loc 2 60 2
#APP
# 60 "include/type.h" 1
	lw a4, 0(a5)
# 0 "" 2
.LVL576:
	.loc 2 61 2
#NO_APP
.LBE2302:
.LBE2301:
	.loc 1 1160 13
#APP
# 1160 "dram/sun20iw1p1/mctl_standby-sun8iw20.c" 1
	fence i,r
# 0 "" 2
	.loc 1 1160 13
	.loc 1 1160 13
.LVL577:
#NO_APP
.LBE2300:
	.loc 1 1161 3
	.loc 1 1162 3
.LBB2303:
	.loc 1 1162 3
#APP
# 1162 "dram/sun20iw1p1/mctl_standby-sun8iw20.c" 1
	fence w,o
# 0 "" 2
	.loc 1 1162 3
	.loc 1 1162 3
.LVL578:
#NO_APP
.LBB2304:
.LBB2305:
	.loc 2 37 2
.LBE2305:
.LBE2304:
.LBE2303:
	.loc 1 1161 11 is_stmt 0
	andi	a4,a4,-2
.LVL579:
.LBB2308:
.LBB2307:
.LBB2306:
	.loc 2 37 2
#APP
# 37 "include/type.h" 1
	sw a4, 0(a5)
# 0 "" 2
#NO_APP
.LBE2306:
.LBE2307:
	.loc 1 1162 3 is_stmt 1
	.loc 1 1162 3
.LBE2308:
	.loc 1 1171 2
	.loc 1 1171 5 is_stmt 0
	lw	a5,92(s0)
	andi	a5,a5,512
	.loc 1 1171 4
	bnez	a5,.L103
.LVL580:
.L117:
	.loc 1 1171 37 discriminator 1
	lw	a4,4(s0)
	li	a5,6
	beq	a4,a5,.L103
	.loc 1 1181 3 is_stmt 1
.LBB2309:
	.loc 1 1181 13
	.loc 1 1181 13
	.loc 1 1181 13
	.loc 1 1181 13
.LVL581:
.LBB2310:
.LBB2311:
	.loc 2 58 2
	.loc 2 60 2
	li	a4,51392512
	addi	a4,a4,256
#APP
# 60 "include/type.h" 1
	lw a3, 0(a4)
# 0 "" 2
.LVL582:
	.loc 2 61 2
#NO_APP
.LBE2311:
.LBE2310:
	.loc 1 1181 13
#APP
# 1181 "dram/sun20iw1p1/mctl_standby-sun8iw20.c" 1
	fence i,r
# 0 "" 2
	.loc 1 1181 13
	.loc 1 1181 13
.LVL583:
#NO_APP
.LBE2309:
	.loc 1 1182 3
	.loc 1 1183 3
.LBB2312:
	.loc 1 1183 3
#APP
# 1183 "dram/sun20iw1p1/mctl_standby-sun8iw20.c" 1
	fence w,o
# 0 "" 2
	.loc 1 1183 3
	.loc 1 1183 3
.LVL584:
#NO_APP
.LBB2313:
.LBB2314:
	.loc 2 37 2
.LBE2314:
.LBE2313:
.LBE2312:
	.loc 1 1182 11 is_stmt 0
	li	a5,-61440
	addi	a5,a5,-1
	and	a5,a5,a3
.LBB2317:
.LBB2316:
.LBB2315:
	.loc 2 37 2
#APP
# 37 "include/type.h" 1
	sw a5, 0(a4)
# 0 "" 2
.LVL585:
#NO_APP
.L105:
.LBE2315:
.LBE2316:
	.loc 1 1183 3 is_stmt 1 discriminator 1
	.loc 1 1183 3 discriminator 1
.LBE2317:
	.loc 1 1184 40 discriminator 1
	.loc 1 1186 2 discriminator 1
.LBB2318:
	.loc 1 1186 12 discriminator 1
	.loc 1 1186 12 discriminator 1
	.loc 1 1186 12 discriminator 1
	.loc 1 1186 12 discriminator 1
.LBB2319:
.LBB2320:
	.loc 2 58 2 discriminator 1
	.loc 2 60 2 discriminator 1
	li	a5,51392512
	addi	a3,a5,320
#APP
# 60 "include/type.h" 1
	lw a4, 0(a3)
# 0 "" 2
.LVL586:
	.loc 2 61 2 discriminator 1
#NO_APP
.LBE2320:
.LBE2319:
	.loc 1 1186 12 discriminator 1
#APP
# 1186 "dram/sun20iw1p1/mctl_standby-sun8iw20.c" 1
	fence i,r
# 0 "" 2
	.loc 1 1186 12 discriminator 1
	.loc 1 1186 12 discriminator 1
.LVL587:
#NO_APP
.LBE2318:
	.loc 1 1187 2 discriminator 1
	.loc 1 1188 2 discriminator 1
.LBB2321:
	.loc 1 1188 2 discriminator 1
#APP
# 1188 "dram/sun20iw1p1/mctl_standby-sun8iw20.c" 1
	fence w,o
# 0 "" 2
	.loc 1 1188 2 discriminator 1
	.loc 1 1188 2 discriminator 1
.LVL588:
#NO_APP
.LBB2322:
.LBB2323:
	.loc 2 37 2 discriminator 1
.LBE2323:
.LBE2322:
.LBE2321:
	.loc 1 1187 10 is_stmt 0 discriminator 1
	li	a2,-2147483648
	or	a4,a4,a2
.LVL589:
.LBB2326:
.LBB2325:
.LBB2324:
	.loc 2 37 2 discriminator 1
#APP
# 37 "include/type.h" 1
	sw a4, 0(a3)
# 0 "" 2
.LVL590:
#NO_APP
.LBE2324:
.LBE2325:
	.loc 1 1188 2 is_stmt 1 discriminator 1
	.loc 1 1188 2 discriminator 1
.LBE2326:
	.loc 1 1195 2 discriminator 1
	.loc 1 1195 10 is_stmt 0 discriminator 1
	lw	a4,92(s0)
	.loc 1 1195 5 discriminator 1
	andi	a3,a4,256
	.loc 1 1195 4 discriminator 1
	beqz	a3,.L106
	.loc 1 1197 3 is_stmt 1
.LBB2327:
	.loc 1 1197 13
	.loc 1 1197 13
	.loc 1 1197 13
	.loc 1 1197 13
.LVL591:
.LBB2328:
.LBB2329:
	.loc 2 58 2
	.loc 2 60 2
	addi	a5,a5,184
#APP
# 60 "include/type.h" 1
	lw a4, 0(a5)
# 0 "" 2
.LVL592:
	.loc 2 61 2
#NO_APP
.LBE2329:
.LBE2328:
	.loc 1 1197 13
#APP
# 1197 "dram/sun20iw1p1/mctl_standby-sun8iw20.c" 1
	fence i,r
# 0 "" 2
	.loc 1 1197 13
	.loc 1 1197 13
.LVL593:
#NO_APP
.LBE2327:
	.loc 1 1198 3
	.loc 1 1199 3
	.loc 1 1200 3
.LBB2330:
	.loc 1 1200 3
#APP
# 1200 "dram/sun20iw1p1/mctl_standby-sun8iw20.c" 1
	fence w,o
# 0 "" 2
	.loc 1 1200 3
	.loc 1 1200 3
.LVL594:
#NO_APP
.LBB2331:
.LBB2332:
	.loc 2 37 2
.LBE2332:
.LBE2331:
.LBE2330:
	.loc 1 1199 11 is_stmt 0
	ori	a4,a4,768
.LVL595:
.LBB2335:
.LBB2334:
.LBB2333:
	.loc 2 37 2
#APP
# 37 "include/type.h" 1
	sw a4, 0(a5)
# 0 "" 2
#NO_APP
	lw	a4,92(s0)
.LVL596:
.L106:
.LBE2333:
.LBE2334:
	.loc 1 1200 3 is_stmt 1 discriminator 1
	.loc 1 1200 3 discriminator 1
.LBE2335:
	.loc 1 1201 29 discriminator 1
	.loc 1 1203 2 discriminator 1
	.loc 1 1203 4 is_stmt 0 discriminator 1
	slli	a5,a4,37
	bgez	a5,.L107
	.loc 1 1205 3 is_stmt 1
.LBB2336:
	.loc 1 1205 13
	.loc 1 1205 13
	.loc 1 1205 13
	.loc 1 1205 13
.LVL597:
.LBB2337:
.LBB2338:
	.loc 2 58 2
	.loc 2 60 2
	li	a4,51392512
	addi	a4,a4,264
#APP
# 60 "include/type.h" 1
	lw a3, 0(a4)
# 0 "" 2
.LVL598:
	.loc 2 61 2
#NO_APP
.LBE2338:
.LBE2337:
	.loc 1 1205 13
#APP
# 1205 "dram/sun20iw1p1/mctl_standby-sun8iw20.c" 1
	fence i,r
# 0 "" 2
	.loc 1 1205 13
	.loc 1 1205 13
.LVL599:
#NO_APP
.LBE2336:
	.loc 1 1206 3
	.loc 1 1207 3
.LBB2339:
	.loc 1 1207 3
#APP
# 1207 "dram/sun20iw1p1/mctl_standby-sun8iw20.c" 1
	fence w,o
# 0 "" 2
	.loc 1 1207 3
	.loc 1 1207 3
.LVL600:
#NO_APP
.LBB2340:
.LBB2341:
	.loc 2 37 2
.LBE2341:
.LBE2340:
.LBE2339:
	.loc 1 1206 11 is_stmt 0
	li	a5,-8192
	addi	a5,a5,-1
	and	a5,a5,a3
.LBB2344:
.LBB2343:
.LBB2342:
	.loc 2 37 2
#APP
# 37 "include/type.h" 1
	sw a5, 0(a4)
# 0 "" 2
.LVL601:
#NO_APP
.L108:
.LBE2342:
.LBE2343:
.LBE2344:
.LBB2345:
	.loc 1 1214 3 is_stmt 1 discriminator 1
	.loc 1 1214 3 discriminator 1
.LBE2345:
	.loc 1 1215 34 discriminator 1
	.loc 1 1217 2 discriminator 1
	.loc 1 1217 4 is_stmt 0 discriminator 1
	lw	a4,4(s0)
	li	a5,7
	bne	a4,a5,.L109
	.loc 1 1219 3 is_stmt 1
.LBB2350:
	.loc 1 1219 13
	.loc 1 1219 13
	.loc 1 1219 13
	.loc 1 1219 13
.LVL602:
.LBB2351:
.LBB2352:
	.loc 2 58 2
	.loc 2 60 2
	li	a4,51392512
	addi	a4,a4,124
#APP
# 60 "include/type.h" 1
	lw a3, 0(a4)
# 0 "" 2
.LVL603:
	.loc 2 61 2
#NO_APP
.LBE2352:
.LBE2351:
	.loc 1 1219 13
#APP
# 1219 "dram/sun20iw1p1/mctl_standby-sun8iw20.c" 1
	fence i,r
# 0 "" 2
	.loc 1 1219 13
	.loc 1 1219 13
.LVL604:
#NO_APP
.LBE2350:
	.loc 1 1220 3
	.loc 1 1220 11 is_stmt 0
	li	a5,-983040
	addiw	a5,a5,-1
	and	a5,a5,a3
.LVL605:
	.loc 1 1221 3 is_stmt 1
	.loc 1 1222 3
.LBB2353:
	.loc 1 1222 3
#APP
# 1222 "dram/sun20iw1p1/mctl_standby-sun8iw20.c" 1
	fence w,o
# 0 "" 2
	.loc 1 1222 3
	.loc 1 1222 3
.LVL606:
#NO_APP
.LBB2354:
.LBB2355:
	.loc 2 37 2
.LBE2355:
.LBE2354:
.LBE2353:
	.loc 1 1221 11 is_stmt 0
	li	a3,65536
.LVL607:
	or	a5,a5,a3
.LVL608:
.LBB2358:
.LBB2357:
.LBB2356:
	.loc 2 37 2
#APP
# 37 "include/type.h" 1
	sw a5, 0(a4)
# 0 "" 2
.LVL609:
#NO_APP
.L109:
.LBE2356:
.LBE2357:
	.loc 1 1222 3 is_stmt 1 discriminator 1
	.loc 1 1222 3 discriminator 1
.LBE2358:
	.loc 1 1234 2 discriminator 1
	.loc 1 59 2 discriminator 1
.LBB2359:
.LBB2360:
	.loc 1 59 2 discriminator 1
#APP
# 59 "dram/sun20iw1p1/mctl_standby-sun8iw20.c" 1
	fence w,o
# 0 "" 2
	.loc 1 59 2 discriminator 1
	.loc 1 59 2 discriminator 1
.LVL610:
#NO_APP
.LBB2361:
.LBB2362:
	.loc 2 37 2 discriminator 1
	li	a5,51388416
	addi	a3,a5,32
	li	a4,-1
#APP
# 37 "include/type.h" 1
	sw a4, 0(a3)
# 0 "" 2
.LVL611:
#NO_APP
.LBE2362:
.LBE2361:
	.loc 1 59 2 discriminator 1
	.loc 1 59 2 discriminator 1
.LBE2360:
.LBE2359:
	.loc 1 60 2 discriminator 1
.LBB2369:
.LBB2363:
	.loc 1 60 2 discriminator 1
#APP
# 60 "dram/sun20iw1p1/mctl_standby-sun8iw20.c" 1
	fence w,o
# 0 "" 2
	.loc 1 60 2 discriminator 1
	.loc 1 60 2 discriminator 1
.LVL612:
#NO_APP
.LBB2364:
.LBB2365:
	.loc 2 37 2 discriminator 1
	li	a4,255
	addi	a3,a5,36
#APP
# 37 "include/type.h" 1
	sw a4, 0(a3)
# 0 "" 2
.LVL613:
#NO_APP
.LBE2365:
.LBE2364:
	.loc 1 60 2 discriminator 1
	.loc 1 60 2 discriminator 1
.LBE2363:
.LBE2369:
	.loc 1 61 2 discriminator 1
.LBB2370:
.LBB2366:
	.loc 1 61 2 discriminator 1
#APP
# 61 "dram/sun20iw1p1/mctl_standby-sun8iw20.c" 1
	fence w,o
# 0 "" 2
	.loc 1 61 2 discriminator 1
	.loc 1 61 2 discriminator 1
.LVL614:
#NO_APP
.LBB2367:
.LBB2368:
	.loc 2 37 2 discriminator 1
	li	a4,65536
	addi	a5,a5,40
	addiw	a4,a4,-1
#APP
# 37 "include/type.h" 1
	sw a4, 0(a5)
# 0 "" 2
.LVL615:
#NO_APP
.LBE2368:
.LBE2367:
	.loc 1 61 2 discriminator 1
	.loc 1 61 2 discriminator 1
.LBE2366:
.LBE2370:
	.loc 1 62 2 discriminator 1
	.loc 1 47 2 discriminator 1
	.loc 1 48 2 discriminator 1
	.loc 1 48 13 discriminator 1
	.loc 1 1235 2 discriminator 1
.L100:
	.loc 1 1236 1 is_stmt 0
	ld	ra,8(sp)
	.cfi_remember_state
	.cfi_restore 1
	ld	s0,0(sp)
	.cfi_restore 8
.LVL616:
	addi	sp,sp,16
	.cfi_def_cfa_offset 0
	jr	ra
.LVL617:
	.align	2
.L116:
	.cfi_restore_state
	.loc 1 1153 3 is_stmt 1
.LBB2371:
	.loc 1 1153 13
	.loc 1 1153 13
	.loc 1 1153 13
	.loc 1 1153 13
.LBB2299:
.LBB2298:
	.loc 2 58 2
	.loc 2 60 2
#APP
# 60 "include/type.h" 1
	lw a4, 0(a5)
# 0 "" 2
.LVL618:
	.loc 2 61 2
#NO_APP
.LBE2298:
.LBE2299:
	.loc 1 1153 13
#APP
# 1153 "dram/sun20iw1p1/mctl_standby-sun8iw20.c" 1
	fence i,r
# 0 "" 2
	.loc 1 1153 13
	.loc 1 1153 13
.LVL619:
#NO_APP
.LBE2371:
	.loc 1 1154 3
	.loc 1 1155 3
.LBB2372:
	.loc 1 1155 3
#APP
# 1155 "dram/sun20iw1p1/mctl_standby-sun8iw20.c" 1
	fence w,o
# 0 "" 2
	.loc 1 1155 3
	.loc 1 1155 3
.LVL620:
#NO_APP
.LBB2373:
.LBB2374:
	.loc 2 37 2
.LBE2374:
.LBE2373:
.LBE2372:
	.loc 1 1154 11 is_stmt 0
	ori	a4,a4,1
.LVL621:
.LBB2377:
.LBB2376:
.LBB2375:
	.loc 2 37 2
#APP
# 37 "include/type.h" 1
	sw a4, 0(a5)
# 0 "" 2
#NO_APP
.LBE2375:
.LBE2376:
.LBE2377:
.LBB2378:
	.loc 1 1162 3 is_stmt 1
	.loc 1 1162 3
.LBE2378:
	.loc 1 1171 2
	.loc 1 1171 5 is_stmt 0
	lw	a5,92(s0)
	andi	a5,a5,512
	.loc 1 1171 4
	beqz	a5,.L117
.LVL622:
.L103:
	.loc 1 1173 3 is_stmt 1
.LBB2379:
	.loc 1 1173 13
	.loc 1 1173 13
	.loc 1 1173 13
	.loc 1 1173 13
.LBB2380:
.LBB2381:
	.loc 2 58 2
	.loc 2 60 2
	li	a4,51392512
	addi	a4,a4,256
#APP
# 60 "include/type.h" 1
	lw a3, 0(a4)
# 0 "" 2
.LVL623:
	.loc 2 61 2
#NO_APP
.LBE2381:
.LBE2380:
	.loc 1 1173 13
#APP
# 1173 "dram/sun20iw1p1/mctl_standby-sun8iw20.c" 1
	fence i,r
# 0 "" 2
	.loc 1 1173 13
	.loc 1 1173 13
.LVL624:
#NO_APP
.LBE2379:
	.loc 1 1174 3
	.loc 1 1174 11 is_stmt 0
	li	a5,-61440
	addiw	a5,a5,-1
	and	a5,a5,a3
.LVL625:
	.loc 1 1175 3 is_stmt 1
	.loc 1 1176 3
.LBB2382:
	.loc 1 1176 3
#APP
# 1176 "dram/sun20iw1p1/mctl_standby-sun8iw20.c" 1
	fence w,o
# 0 "" 2
	.loc 1 1176 3
	.loc 1 1176 3
.LVL626:
#NO_APP
.LBB2383:
.LBB2384:
	.loc 2 37 2
.LBE2384:
.LBE2383:
.LBE2382:
	.loc 1 1175 11 is_stmt 0
	li	a3,20480
.LVL627:
	or	a5,a5,a3
.LVL628:
.LBB2387:
.LBB2386:
.LBB2385:
	.loc 2 37 2
#APP
# 37 "include/type.h" 1
	sw a5, 0(a4)
# 0 "" 2
#NO_APP
	j	.L105
.LVL629:
	.align	2
.L98:
.LBE2385:
.LBE2386:
.LBE2387:
	.loc 1 1124 8 is_stmt 1
.LBB2388:
	.loc 1 1124 8
#APP
# 1124 "dram/sun20iw1p1/mctl_standby-sun8iw20.c" 1
	fence w,o
# 0 "" 2
	.loc 1 1124 8
	.loc 1 1124 8
#NO_APP
.LBB2389:
	.loc 1 1124 8
	.loc 1 1124 8
	.loc 1 1124 8
	.loc 1 1124 8
.LVL630:
.LBB2390:
.LBB2391:
	.loc 2 58 2
	.loc 2 60 2
	li	a5,50331648
	addi	a3,a5,352
#APP
# 60 "include/type.h" 1
	lw a4, 0(a3)
# 0 "" 2
.LVL631:
	.loc 2 61 2
#NO_APP
.LBE2391:
.LBE2390:
	.loc 1 1124 8
#APP
# 1124 "dram/sun20iw1p1/mctl_standby-sun8iw20.c" 1
	fence i,r
# 0 "" 2
	.loc 1 1124 8
	.loc 1 1124 8
.LVL632:
#NO_APP
.LBE2389:
.LBB2392:
.LBB2393:
	.loc 2 37 2
.LBE2393:
.LBE2392:
	.loc 1 1124 8 is_stmt 0
	ori	a4,a4,256
.LVL633:
.LBB2395:
.LBB2394:
	.loc 2 37 2
#APP
# 37 "include/type.h" 1
	sw a4, 0(a3)
# 0 "" 2
.LVL634:
#NO_APP
.LBE2394:
.LBE2395:
	.loc 1 1124 8 is_stmt 1
	.loc 1 1124 8
.LBE2388:
	.loc 1 1126 8
.LBB2396:
	.loc 1 1126 8
#APP
# 1126 "dram/sun20iw1p1/mctl_standby-sun8iw20.c" 1
	fence w,o
# 0 "" 2
	.loc 1 1126 8
	.loc 1 1126 8
.LVL635:
#NO_APP
.LBB2397:
.LBB2398:
	.loc 2 37 2
	li	a4,0
	addi	a5,a5,360
#APP
# 37 "include/type.h" 1
	sw a4, 0(a5)
# 0 "" 2
#NO_APP
	j	.L99
.LVL636:
	.align	2
.L107:
.LBE2398:
.LBE2397:
.LBE2396:
	.loc 1 1212 3
.LBB2399:
	.loc 1 1212 13
	.loc 1 1212 13
	.loc 1 1212 13
	.loc 1 1212 13
.LBB2400:
.LBB2401:
	.loc 2 58 2
	.loc 2 60 2
	li	a5,51392512
	addi	a5,a5,264
#APP
# 60 "include/type.h" 1
	lw a4, 0(a5)
# 0 "" 2
.LVL637:
	.loc 2 61 2
#NO_APP
.LBE2401:
.LBE2400:
	.loc 1 1212 13
#APP
# 1212 "dram/sun20iw1p1/mctl_standby-sun8iw20.c" 1
	fence i,r
# 0 "" 2
	.loc 1 1212 13
	.loc 1 1212 13
.LVL638:
#NO_APP
.LBE2399:
	.loc 1 1213 3
	.loc 1 1214 3
.LBB2402:
	.loc 1 1214 3
#APP
# 1214 "dram/sun20iw1p1/mctl_standby-sun8iw20.c" 1
	fence w,o
# 0 "" 2
	.loc 1 1214 3
	.loc 1 1214 3
.LVL639:
#NO_APP
.LBB2346:
.LBB2347:
	.loc 2 37 2
.LBE2347:
.LBE2346:
.LBE2402:
	.loc 1 1213 11 is_stmt 0
	li	a3,8192
	or	a4,a4,a3
.LVL640:
.LBB2403:
.LBB2349:
.LBB2348:
	.loc 2 37 2
#APP
# 37 "include/type.h" 1
	sw a4, 0(a5)
# 0 "" 2
#NO_APP
	j	.L108
.LBE2348:
.LBE2349:
.LBE2403:
	.cfi_endproc
.LFE23:
	.size	init_DRAM_standby, .-init_DRAM_standby
	.align	1
	.align	4
	.globl	dram_power_save_process
	.type	dram_power_save_process, @function
dram_power_save_process:
.LFB25:
	.loc 1 1250 1 is_stmt 1
	.cfi_startproc
	.loc 1 1251 2
.LBB2545:
.LBB2546:
	.loc 1 145 2
.LVL641:
	.loc 1 146 2
	.loc 1 147 2
	.loc 1 149 2
.LBB2547:
	.loc 1 149 11
	.loc 1 149 11
	.loc 1 149 11
	.loc 1 149 11
.LBB2548:
.LBB2549:
	.loc 2 58 2
	.loc 2 60 2
	li	a4,51388416
#APP
# 60 "include/type.h" 1
	lw a3, 0(a4)
# 0 "" 2
.LVL642:
	.loc 2 61 2
#NO_APP
.LBE2549:
.LBE2548:
	.loc 1 149 11
#APP
# 149 "dram/sun20iw1p1/mctl_standby-sun8iw20.c" 1
	fence i,r
# 0 "" 2
	.loc 1 149 11
	.loc 1 149 11
#NO_APP
.LBE2547:
	.loc 1 149 9 is_stmt 0
	lla	a5,.LANCHOR0
	sw	a3,0(a5)
	.loc 1 150 2 is_stmt 1
.LBB2550:
	.loc 1 150 11
	.loc 1 150 11
	.loc 1 150 11
	.loc 1 150 11
.LVL643:
.LBB2551:
.LBB2552:
	.loc 2 58 2
	.loc 2 60 2
	addi	a4,a4,4
#APP
# 60 "include/type.h" 1
	lw a3, 0(a4)
# 0 "" 2
.LVL644:
	.loc 2 61 2
#NO_APP
.LBE2552:
.LBE2551:
	.loc 1 150 11
#APP
# 150 "dram/sun20iw1p1/mctl_standby-sun8iw20.c" 1
	fence i,r
# 0 "" 2
	.loc 1 150 11
	.loc 1 150 11
#NO_APP
.LBE2550:
.LBB2553:
.LBB2554:
.LBB2555:
	.loc 2 60 2 is_stmt 0
	li	a4,51392512
.LBE2555:
.LBE2554:
.LBE2553:
	.loc 1 150 9
	sw	a3,4(a5)
	.loc 1 151 2 is_stmt 1
.LBB2558:
	.loc 1 151 11
	.loc 1 151 11
	.loc 1 151 11
	.loc 1 151 11
.LVL645:
.LBB2557:
.LBB2556:
	.loc 2 58 2
	.loc 2 60 2
	addi	a3,a4,88
.LVL646:
#APP
# 60 "include/type.h" 1
	lw a3, 0(a3)
# 0 "" 2
.LVL647:
	.loc 2 61 2
#NO_APP
.LBE2556:
.LBE2557:
	.loc 1 151 11
#APP
# 151 "dram/sun20iw1p1/mctl_standby-sun8iw20.c" 1
	fence i,r
# 0 "" 2
	.loc 1 151 11
	.loc 1 151 11
#NO_APP
.LBE2558:
	.loc 1 151 9 is_stmt 0
	sw	a3,8(a5)
	.loc 1 152 2 is_stmt 1
.LBB2559:
	.loc 1 152 11
	.loc 1 152 11
	.loc 1 152 11
	.loc 1 152 11
.LVL648:
.LBB2560:
.LBB2561:
	.loc 2 58 2
	.loc 2 60 2
	addi	a3,a4,92
.LVL649:
#APP
# 60 "include/type.h" 1
	lw a3, 0(a3)
# 0 "" 2
.LVL650:
	.loc 2 61 2
#NO_APP
.LBE2561:
.LBE2560:
	.loc 1 152 11
#APP
# 152 "dram/sun20iw1p1/mctl_standby-sun8iw20.c" 1
	fence i,r
# 0 "" 2
	.loc 1 152 11
	.loc 1 152 11
#NO_APP
.LBE2559:
	.loc 1 152 9 is_stmt 0
	sw	a3,12(a5)
	.loc 1 153 2 is_stmt 1
.LBB2562:
	.loc 1 153 11
	.loc 1 153 11
	.loc 1 153 11
	.loc 1 153 11
.LVL651:
.LBB2563:
.LBB2564:
	.loc 2 58 2
	.loc 2 60 2
	addi	a3,a4,96
.LVL652:
#APP
# 60 "include/type.h" 1
	lw a3, 0(a3)
# 0 "" 2
.LVL653:
	.loc 2 61 2
#NO_APP
.LBE2564:
.LBE2563:
	.loc 1 153 11
#APP
# 153 "dram/sun20iw1p1/mctl_standby-sun8iw20.c" 1
	fence i,r
# 0 "" 2
	.loc 1 153 11
	.loc 1 153 11
#NO_APP
.LBE2562:
	.loc 1 153 9 is_stmt 0
	sw	a3,16(a5)
	.loc 1 154 2 is_stmt 1
.LBB2565:
	.loc 1 154 11
	.loc 1 154 11
	.loc 1 154 11
	.loc 1 154 11
.LVL654:
.LBB2566:
.LBB2567:
	.loc 2 58 2
	.loc 2 60 2
	addi	a3,a4,100
.LVL655:
#APP
# 60 "include/type.h" 1
	lw a3, 0(a3)
# 0 "" 2
.LVL656:
	.loc 2 61 2
#NO_APP
.LBE2567:
.LBE2566:
	.loc 1 154 11
#APP
# 154 "dram/sun20iw1p1/mctl_standby-sun8iw20.c" 1
	fence i,r
# 0 "" 2
	.loc 1 154 11
	.loc 1 154 11
#NO_APP
.LBE2565:
	.loc 1 154 9 is_stmt 0
	sw	a3,20(a5)
	.loc 1 155 2 is_stmt 1
.LBB2568:
	.loc 1 155 11
	.loc 1 155 11
	.loc 1 155 11
	.loc 1 155 11
.LVL657:
.LBB2569:
.LBB2570:
	.loc 2 58 2
	.loc 2 60 2
	addi	a3,a4,104
.LVL658:
#APP
# 60 "include/type.h" 1
	lw a3, 0(a3)
# 0 "" 2
.LVL659:
	.loc 2 61 2
#NO_APP
.LBE2570:
.LBE2569:
	.loc 1 155 11
#APP
# 155 "dram/sun20iw1p1/mctl_standby-sun8iw20.c" 1
	fence i,r
# 0 "" 2
	.loc 1 155 11
	.loc 1 155 11
#NO_APP
.LBE2568:
	.loc 1 155 9 is_stmt 0
	sw	a3,24(a5)
	.loc 1 156 2 is_stmt 1
.LBB2571:
	.loc 1 156 11
	.loc 1 156 11
	.loc 1 156 11
	.loc 1 156 11
.LVL660:
.LBB2572:
.LBB2573:
	.loc 2 58 2
	.loc 2 60 2
	addi	a3,a4,108
.LVL661:
#APP
# 60 "include/type.h" 1
	lw a3, 0(a3)
# 0 "" 2
.LVL662:
	.loc 2 61 2
#NO_APP
.LBE2573:
.LBE2572:
	.loc 1 156 11
#APP
# 156 "dram/sun20iw1p1/mctl_standby-sun8iw20.c" 1
	fence i,r
# 0 "" 2
	.loc 1 156 11
	.loc 1 156 11
#NO_APP
.LBE2571:
	.loc 1 156 9 is_stmt 0
	sw	a3,28(a5)
	.loc 1 157 2 is_stmt 1
.LBB2574:
	.loc 1 157 11
	.loc 1 157 11
	.loc 1 157 11
	.loc 1 157 11
.LVL663:
.LBB2575:
.LBB2576:
	.loc 2 58 2
	.loc 2 60 2
	addi	a3,a4,120
.LVL664:
#APP
# 60 "include/type.h" 1
	lw a3, 0(a3)
# 0 "" 2
.LVL665:
	.loc 2 61 2
#NO_APP
.LBE2576:
.LBE2575:
	.loc 1 157 11
#APP
# 157 "dram/sun20iw1p1/mctl_standby-sun8iw20.c" 1
	fence i,r
# 0 "" 2
	.loc 1 157 11
	.loc 1 157 11
#NO_APP
.LBE2574:
	.loc 1 157 9 is_stmt 0
	sw	a3,32(a5)
	.loc 1 158 2 is_stmt 1
.LBB2577:
	.loc 1 158 11
	.loc 1 158 11
	.loc 1 158 11
	.loc 1 158 11
.LVL666:
.LBB2578:
.LBB2579:
	.loc 2 58 2
	.loc 2 60 2
	addi	a3,a4,128
.LVL667:
#APP
# 60 "include/type.h" 1
	lw a3, 0(a3)
# 0 "" 2
.LVL668:
	.loc 2 61 2
#NO_APP
.LBE2579:
.LBE2578:
	.loc 1 158 11
#APP
# 158 "dram/sun20iw1p1/mctl_standby-sun8iw20.c" 1
	fence i,r
# 0 "" 2
	.loc 1 158 11
	.loc 1 158 11
#NO_APP
.LBE2577:
	.loc 1 158 9 is_stmt 0
	sw	a3,36(a5)
	.loc 1 159 2 is_stmt 1
.LBB2580:
	.loc 1 159 12
	.loc 1 159 12
	.loc 1 159 12
	.loc 1 159 12
.LVL669:
.LBB2581:
.LBB2582:
	.loc 2 58 2
	.loc 2 60 2
	addi	a3,a4,80
.LVL670:
#APP
# 60 "include/type.h" 1
	lw a3, 0(a3)
# 0 "" 2
.LVL671:
	.loc 2 61 2
#NO_APP
.LBE2582:
.LBE2581:
	.loc 1 159 12
#APP
# 159 "dram/sun20iw1p1/mctl_standby-sun8iw20.c" 1
	fence i,r
# 0 "" 2
	.loc 1 159 12
	.loc 1 159 12
#NO_APP
.LBE2580:
	.loc 1 159 10 is_stmt 0
	sw	a3,40(a5)
	.loc 1 160 2 is_stmt 1
.LBB2583:
	.loc 1 160 12
	.loc 1 160 12
	.loc 1 160 12
	.loc 1 160 12
.LVL672:
.LBB2584:
.LBB2585:
	.loc 2 58 2
	.loc 2 60 2
	addi	a3,a4,84
.LVL673:
#APP
# 60 "include/type.h" 1
	lw a3, 0(a3)
# 0 "" 2
.LVL674:
	.loc 2 61 2
#NO_APP
.LBE2585:
.LBE2584:
	.loc 1 160 12
#APP
# 160 "dram/sun20iw1p1/mctl_standby-sun8iw20.c" 1
	fence i,r
# 0 "" 2
	.loc 1 160 12
	.loc 1 160 12
#NO_APP
.LBE2583:
	.loc 1 160 10 is_stmt 0
	sw	a3,44(a5)
	.loc 1 161 2 is_stmt 1
.LBB2586:
	.loc 1 161 12
	.loc 1 161 12
	.loc 1 161 12
	.loc 1 161 12
.LVL675:
.LBB2587:
.LBB2588:
	.loc 2 58 2
	.loc 2 60 2
	addi	a3,a4,156
.LVL676:
#APP
# 60 "include/type.h" 1
	lw a3, 0(a3)
# 0 "" 2
.LVL677:
	.loc 2 61 2
#NO_APP
.LBE2588:
.LBE2587:
	.loc 1 161 12
#APP
# 161 "dram/sun20iw1p1/mctl_standby-sun8iw20.c" 1
	fence i,r
# 0 "" 2
	.loc 1 161 12
	.loc 1 161 12
#NO_APP
.LBE2586:
	.loc 1 161 10 is_stmt 0
	sw	a3,48(a5)
	.loc 1 162 2 is_stmt 1
.LBB2589:
	.loc 1 162 12
	.loc 1 162 12
	.loc 1 162 12
	.loc 1 162 12
.LVL678:
.LBB2590:
.LBB2591:
	.loc 2 58 2
	.loc 2 60 2
	addi	a3,a4,160
.LVL679:
#APP
# 60 "include/type.h" 1
	lw a3, 0(a3)
# 0 "" 2
.LVL680:
	.loc 2 61 2
#NO_APP
.LBE2591:
.LBE2590:
	.loc 1 162 12
#APP
# 162 "dram/sun20iw1p1/mctl_standby-sun8iw20.c" 1
	fence i,r
# 0 "" 2
	.loc 1 162 12
	.loc 1 162 12
#NO_APP
.LBE2589:
	.loc 1 163 10 is_stmt 0
	sw	zero,.LANCHOR0+56,a2
	.loc 1 162 10
	sw	a3,52(a5)
	.loc 1 163 2 is_stmt 1
	.loc 1 165 2
	.loc 1 163 10 is_stmt 0
	addi	a4,a4,784
	li	a3,15
.LVL681:
	.loc 1 165 2
	li	a0,59
.LVL682:
.L119:
.LBE2546:
.LBE2545:
	.loc 1 1250 1
	mv	a1,a4
	addiw	a2,a3,11
.LVL683:
	.align	3
.L120:
.LBB2758:
.LBB2748:
	.loc 1 169 4 is_stmt 1
.LBB2592:
	.loc 1 169 29
	.loc 1 169 29
	.loc 1 169 29
	.loc 1 169 29
.LBB2593:
.LBB2594:
	.loc 2 58 2
	.loc 2 60 2
#APP
# 60 "include/type.h" 1
	lw a6, 0(a1)
# 0 "" 2
.LVL684:
	.loc 2 61 2
#NO_APP
.LBE2594:
.LBE2593:
	.loc 1 169 29
#APP
# 169 "dram/sun20iw1p1/mctl_standby-sun8iw20.c" 1
	fence i,r
# 0 "" 2
	.loc 1 169 29
	.loc 1 169 29
#NO_APP
.LBE2592:
	.loc 1 169 27 is_stmt 0
	surw	a6,a5,a3,2
	addiw	a3,a3,1
	addi	a1,a1,4
	.loc 1 167 3
	bne	a2,a3,.L120
	addi	a4,a4,128
	mv	a3,a2
	.loc 1 165 2
	bne	a2,a0,.L119
	.loc 1 172 2
	li	a4,51392512
	.loc 1 165 2
	li	a3,51392512
	addi	a3,a3,528
	lla	a1,.LANCHOR0-51392800
	.loc 1 172 2
	addi	a2,a4,652
	.align	3
.L121:
	.loc 1 174 3 is_stmt 1
.LBB2595:
	.loc 1 174 17
	.loc 1 174 17
	.loc 1 174 17
	.loc 1 174 17
.LVL685:
.LBB2596:
.LBB2597:
	.loc 2 58 2
	.loc 2 60 2
#APP
# 60 "include/type.h" 1
	lw a0, 0(a3)
# 0 "" 2
.LVL686:
	.loc 2 61 2
#NO_APP
.LBE2597:
.LBE2596:
	.loc 1 174 17
#APP
# 174 "dram/sun20iw1p1/mctl_standby-sun8iw20.c" 1
	fence i,r
# 0 "" 2
	.loc 1 174 17
	.loc 1 174 17
#NO_APP
.LBE2595:
	.loc 1 174 15 is_stmt 0
	srw	a0,a3,a1,0
	addi	a3,a3,4
	.loc 1 172 2
	bne	a3,a2,.L121
.LVL687:
	.loc 1 178 3 is_stmt 1
.LBB2598:
	.loc 1 178 17
	.loc 1 178 17
	.loc 1 178 17
	.loc 1 178 17
.LBB2599:
.LBB2600:
	.loc 2 58 2
	.loc 2 60 2
	addi	a3,a4,828
#APP
# 60 "include/type.h" 1
	lw a3, 0(a3)
# 0 "" 2
.LVL688:
	.loc 2 61 2
#NO_APP
.LBE2600:
.LBE2599:
	.loc 1 178 17
#APP
# 178 "dram/sun20iw1p1/mctl_standby-sun8iw20.c" 1
	fence i,r
# 0 "" 2
	.loc 1 178 17
	.loc 1 178 17
#NO_APP
.LBE2598:
	.loc 1 178 15 is_stmt 0
	sw	a3,380(a5)
.LVL689:
	.loc 1 178 3 is_stmt 1
.LBB2607:
	.loc 1 178 17
	.loc 1 178 17
	.loc 1 178 17
	.loc 1 178 17
.LBB2604:
.LBB2601:
	.loc 2 58 2
	.loc 2 60 2
	addi	a3,a4,956
.LVL690:
#APP
# 60 "include/type.h" 1
	lw a3, 0(a3)
# 0 "" 2
.LVL691:
	.loc 2 61 2
#NO_APP
.LBE2601:
.LBE2604:
	.loc 1 178 17
#APP
# 178 "dram/sun20iw1p1/mctl_standby-sun8iw20.c" 1
	fence i,r
# 0 "" 2
	.loc 1 178 17
	.loc 1 178 17
#NO_APP
.LBE2607:
	.loc 1 178 15 is_stmt 0
	sw	a3,384(a5)
.LVL692:
	.loc 1 178 3 is_stmt 1
.LBB2608:
	.loc 1 178 17
	.loc 1 178 17
	.loc 1 178 17
	.loc 1 178 17
.LBB2605:
.LBB2602:
	.loc 2 58 2
	.loc 2 60 2
	addi	a3,a4,1084
.LVL693:
#APP
# 60 "include/type.h" 1
	lw a3, 0(a3)
# 0 "" 2
.LVL694:
	.loc 2 61 2
#NO_APP
.LBE2602:
.LBE2605:
	.loc 1 178 17
#APP
# 178 "dram/sun20iw1p1/mctl_standby-sun8iw20.c" 1
	fence i,r
# 0 "" 2
	.loc 1 178 17
	.loc 1 178 17
#NO_APP
.LBE2608:
	.loc 1 178 15 is_stmt 0
	sw	a3,388(a5)
.LVL695:
	.loc 1 178 3 is_stmt 1
.LBB2609:
	.loc 1 178 17
	.loc 1 178 17
	.loc 1 178 17
	.loc 1 178 17
.LBB2606:
.LBB2603:
	.loc 2 58 2
	.loc 2 60 2
	addi	a3,a4,1212
.LVL696:
#APP
# 60 "include/type.h" 1
	lw a3, 0(a3)
# 0 "" 2
.LVL697:
	.loc 2 61 2
#NO_APP
.LBE2603:
.LBE2606:
	.loc 1 178 17
#APP
# 178 "dram/sun20iw1p1/mctl_standby-sun8iw20.c" 1
	fence i,r
# 0 "" 2
	.loc 1 178 17
	.loc 1 178 17
#NO_APP
.LBE2609:
	.loc 1 178 15 is_stmt 0
	sw	a3,392(a5)
.LVL698:
	.loc 1 183 2 is_stmt 1
.LBE2748:
.LBE2758:
	.loc 1 72 2
.LBB2759:
.LBB2749:
.LBB2610:
.LBB2611:
	.loc 1 72 2
#APP
# 72 "dram/sun20iw1p1/mctl_standby-sun8iw20.c" 1
	fence w,o
# 0 "" 2
	.loc 1 72 2
	.loc 1 72 2
.LVL699:
#NO_APP
.LBB2612:
.LBB2613:
	.loc 2 37 2
	li	a5,51388416
	li	a3,0
.LVL700:
	addi	a2,a5,32
#APP
# 37 "include/type.h" 1
	sw a3, 0(a2)
# 0 "" 2
.LVL701:
#NO_APP
.LBE2613:
.LBE2612:
	.loc 1 72 2
	.loc 1 72 2
.LBE2611:
.LBE2610:
.LBE2749:
.LBE2759:
	.loc 1 73 2
.LBB2760:
.LBB2750:
.LBB2620:
.LBB2614:
	.loc 1 73 2
#APP
# 73 "dram/sun20iw1p1/mctl_standby-sun8iw20.c" 1
	fence w,o
# 0 "" 2
	.loc 1 73 2
	.loc 1 73 2
.LVL702:
#NO_APP
.LBB2615:
.LBB2616:
	.loc 2 37 2
	addi	a2,a5,36
#APP
# 37 "include/type.h" 1
	sw a3, 0(a2)
# 0 "" 2
.LVL703:
#NO_APP
.LBE2616:
.LBE2615:
	.loc 1 73 2
	.loc 1 73 2
.LBE2614:
.LBE2620:
.LBE2750:
.LBE2760:
	.loc 1 74 2
.LBB2761:
.LBB2751:
.LBB2621:
.LBB2617:
	.loc 1 74 2
#APP
# 74 "dram/sun20iw1p1/mctl_standby-sun8iw20.c" 1
	fence w,o
# 0 "" 2
	.loc 1 74 2
	.loc 1 74 2
.LVL704:
#NO_APP
.LBB2618:
.LBB2619:
	.loc 2 37 2
	addi	a5,a5,40
#APP
# 37 "include/type.h" 1
	sw a3, 0(a5)
# 0 "" 2
.LVL705:
#NO_APP
.LBE2619:
.LBE2618:
	.loc 1 74 2
	.loc 1 74 2
.LBE2617:
.LBE2621:
.LBE2751:
.LBE2761:
	.loc 1 75 2
	.loc 1 47 2
	.loc 1 48 2
	.loc 1 48 13
.LBB2762:
.LBB2752:
	.loc 1 184 2
.LBE2752:
.LBE2762:
	.loc 1 47 2
	.loc 1 48 2
	.loc 1 48 13
.LBB2763:
.LBB2753:
	.loc 1 187 2
.LBB2622:
	.loc 1 187 12
	.loc 1 187 12
	.loc 1 187 12
	.loc 1 187 12
.LBB2623:
.LBB2624:
	.loc 2 58 2
	.loc 2 60 2
	addi	a4,a4,4
#APP
# 60 "include/type.h" 1
	lw a5, 0(a4)
# 0 "" 2
.LVL706:
	.loc 2 61 2
#NO_APP
.LBE2624:
.LBE2623:
	.loc 1 187 12
#APP
# 187 "dram/sun20iw1p1/mctl_standby-sun8iw20.c" 1
	fence i,r
# 0 "" 2
	.loc 1 187 12
	.loc 1 187 12
.LVL707:
#NO_APP
.LBE2622:
	.loc 1 188 2
	.loc 1 189 2
	.loc 1 190 2
.LBB2625:
	.loc 1 190 2
#APP
# 190 "dram/sun20iw1p1/mctl_standby-sun8iw20.c" 1
	fence w,o
# 0 "" 2
	.loc 1 190 2
	.loc 1 190 2
.LVL708:
#NO_APP
.LBB2626:
.LBB2627:
	.loc 2 37 2
.LBE2627:
.LBE2626:
.LBE2625:
	.loc 1 189 10 is_stmt 0
	ori	a5,a5,257
.LVL709:
.LBB2630:
.LBB2629:
.LBB2628:
	.loc 2 37 2
#APP
# 37 "include/type.h" 1
	sw a5, 0(a4)
# 0 "" 2
#NO_APP
.LBE2628:
.LBE2629:
.LBE2630:
.LBB2631:
.LBB2632:
.LBB2633:
	.loc 2 60 2
	li	a5,51392512
	addi	a2,a5,24
.LBE2633:
.LBE2632:
.LBE2631:
	.loc 1 192 8
	li	a3,3
	.align	3
.L122:
	.loc 1 192 45 is_stmt 1
.LBB2636:
	.loc 1 192 11
	.loc 1 192 11
	.loc 1 192 11
	.loc 1 192 11
.LVL710:
.LBB2635:
.LBB2634:
	.loc 2 58 2
	.loc 2 60 2
#APP
# 60 "include/type.h" 1
	lw a4, 0(a2)
# 0 "" 2
.LVL711:
	.loc 2 61 2
#NO_APP
.LBE2634:
.LBE2635:
	.loc 1 192 11
#APP
# 192 "dram/sun20iw1p1/mctl_standby-sun8iw20.c" 1
	fence i,r
# 0 "" 2
	.loc 1 192 11
	.loc 1 192 11
#NO_APP
.LBE2636:
	.loc 1 192 8 is_stmt 0
	andi	a4,a4,7
.LVL712:
	bne	a4,a3,.L122
	.loc 1 193 2 is_stmt 1
.LVL713:
.LBE2753:
.LBE2763:
	.loc 1 47 2
	.loc 1 48 2
	.loc 1 48 13
.LBB2764:
.LBB2754:
	.loc 1 196 2
.LBB2637:
	.loc 1 196 12
	.loc 1 196 12
	.loc 1 196 12
	.loc 1 196 12
.LBB2638:
.LBB2639:
	.loc 2 58 2
	.loc 2 60 2
	addi	a3,a5,268
#APP
# 60 "include/type.h" 1
	lw a2, 0(a3)
# 0 "" 2
.LVL714:
	.loc 2 61 2
#NO_APP
.LBE2639:
.LBE2638:
	.loc 1 196 12
#APP
# 196 "dram/sun20iw1p1/mctl_standby-sun8iw20.c" 1
	fence i,r
# 0 "" 2
	.loc 1 196 12
	.loc 1 196 12
.LVL715:
#NO_APP
.LBE2637:
	.loc 1 197 2
	.loc 1 198 2
.LBB2640:
	.loc 1 198 2
#APP
# 198 "dram/sun20iw1p1/mctl_standby-sun8iw20.c" 1
	fence w,o
# 0 "" 2
	.loc 1 198 2
	.loc 1 198 2
.LVL716:
#NO_APP
.LBB2641:
.LBB2642:
	.loc 2 37 2
.LBE2642:
.LBE2641:
.LBE2640:
	.loc 1 197 10 is_stmt 0
	li	a4,-16711680
	addi	a4,a4,-1
	and	a4,a4,a2
.LBB2645:
.LBB2644:
.LBB2643:
	.loc 2 37 2
#APP
# 37 "include/type.h" 1
	sw a4, 0(a3)
# 0 "" 2
.LVL717:
#NO_APP
.LBE2643:
.LBE2644:
	.loc 1 198 2 is_stmt 1
	.loc 1 198 2
.LBE2645:
	.loc 1 199 2
.LBE2754:
.LBE2764:
	.loc 1 47 2
	.loc 1 48 2
	.loc 1 48 13
.LBB2765:
.LBB2755:
	.loc 1 205 2
	.loc 1 207 3
.LBB2646:
	.loc 1 207 13
	.loc 1 207 13
	.loc 1 207 13
	.loc 1 207 13
.LBB2647:
.LBB2648:
	.loc 2 58 2
	.loc 2 60 2
	addi	a1,a5,836
#APP
# 60 "include/type.h" 1
	lw a3, 0(a1)
# 0 "" 2
.LVL718:
	.loc 2 61 2
#NO_APP
.LBE2648:
.LBE2647:
	.loc 1 207 13
#APP
# 207 "dram/sun20iw1p1/mctl_standby-sun8iw20.c" 1
	fence i,r
# 0 "" 2
	.loc 1 207 13
	.loc 1 207 13
.LVL719:
#NO_APP
.LBE2646:
	.loc 1 208 3
	.loc 1 209 3
	.loc 1 211 3
	.loc 1 212 3
	.loc 1 213 3
	.loc 1 214 3
	.loc 1 215 3
	.loc 1 216 3
	.loc 1 217 3
.LBB2651:
	.loc 1 217 3
#APP
# 217 "dram/sun20iw1p1/mctl_standby-sun8iw20.c" 1
	fence w,o
# 0 "" 2
	.loc 1 217 3
	.loc 1 217 3
.LVL720:
#NO_APP
.LBB2652:
.LBB2653:
	.loc 2 37 2
.LBE2653:
.LBE2652:
.LBE2651:
	.loc 1 216 11 is_stmt 0
	li	a4,-12644352
	addi	a4,a4,-14
	li	a2,4214784
.LVL721:
	and	a3,a4,a3
.LVL722:
	addi	a2,a2,10
	or	a3,a3,a2
.LBB2660:
.LBB2657:
.LBB2654:
	.loc 2 37 2
#APP
# 37 "include/type.h" 1
	sw a3, 0(a1)
# 0 "" 2
.LVL723:
#NO_APP
.LBE2654:
.LBE2657:
	.loc 1 217 3 is_stmt 1
	.loc 1 217 3
.LBE2660:
	.loc 1 207 3
.LBB2661:
	.loc 1 207 13
	.loc 1 207 13
	.loc 1 207 13
	.loc 1 207 13
.LBB2650:
.LBB2649:
	.loc 2 58 2
	.loc 2 60 2
	addi	a3,a5,964
#APP
# 60 "include/type.h" 1
	lw a1, 0(a3)
# 0 "" 2
.LVL724:
	.loc 2 61 2
#NO_APP
.LBE2649:
.LBE2650:
	.loc 1 207 13
#APP
# 207 "dram/sun20iw1p1/mctl_standby-sun8iw20.c" 1
	fence i,r
# 0 "" 2
	.loc 1 207 13
	.loc 1 207 13
.LVL725:
#NO_APP
.LBE2661:
	.loc 1 208 3
	.loc 1 209 3
	.loc 1 211 3
	.loc 1 212 3
	.loc 1 213 3
	.loc 1 214 3
	.loc 1 215 3
	.loc 1 216 3
	.loc 1 217 3
.LBB2662:
	.loc 1 217 3
#APP
# 217 "dram/sun20iw1p1/mctl_standby-sun8iw20.c" 1
	fence w,o
# 0 "" 2
	.loc 1 217 3
	.loc 1 217 3
.LVL726:
#NO_APP
.LBB2658:
.LBB2655:
	.loc 2 37 2
.LBE2655:
.LBE2658:
.LBE2662:
	.loc 1 216 11 is_stmt 0
	and	a4,a4,a1
	or	a4,a4,a2
.LBB2663:
.LBB2659:
.LBB2656:
	.loc 2 37 2
#APP
# 37 "include/type.h" 1
	sw a4, 0(a3)
# 0 "" 2
.LVL727:
#NO_APP
.LBE2656:
.LBE2659:
	.loc 1 217 3 is_stmt 1
	.loc 1 217 3
.LBE2663:
	.loc 1 219 2
.LBB2664:
	.loc 1 219 12
	.loc 1 219 12
	.loc 1 219 12
	.loc 1 219 12
.LBB2665:
.LBB2666:
	.loc 2 58 2
	.loc 2 60 2
	addi	a3,a5,520
#APP
# 60 "include/type.h" 1
	lw a4, 0(a3)
# 0 "" 2
.LVL728:
	.loc 2 61 2
#NO_APP
.LBE2666:
.LBE2665:
	.loc 1 219 12
#APP
# 219 "dram/sun20iw1p1/mctl_standby-sun8iw20.c" 1
	fence i,r
# 0 "" 2
	.loc 1 219 12
	.loc 1 219 12
.LVL729:
#NO_APP
.LBE2664:
	.loc 1 220 2
	.loc 1 221 2
	.loc 1 222 2
	.loc 1 223 2
	.loc 1 224 2
	.loc 1 225 2
.LBB2667:
	.loc 1 225 2
#APP
# 225 "dram/sun20iw1p1/mctl_standby-sun8iw20.c" 1
	fence w,o
# 0 "" 2
	.loc 1 225 2
	.loc 1 225 2
.LVL730:
#NO_APP
.LBB2668:
.LBB2669:
	.loc 2 37 2
.LBE2669:
.LBE2668:
.LBE2667:
	.loc 1 224 10 is_stmt 0
	andi	a4,a4,-201
.LVL731:
	ori	a4,a4,787
.LBB2672:
.LBB2671:
.LBB2670:
	.loc 2 37 2
#APP
# 37 "include/type.h" 1
	sw a4, 0(a3)
# 0 "" 2
.LVL732:
#NO_APP
.LBE2670:
.LBE2671:
	.loc 1 225 2 is_stmt 1
	.loc 1 225 2
.LBE2672:
	.loc 1 228 2
.LBB2673:
	.loc 1 228 12
	.loc 1 228 12
	.loc 1 228 12
	.loc 1 228 12
.LBB2674:
.LBB2675:
	.loc 2 58 2
	.loc 2 60 2
	li	a4,117506048
	addi	a4,a4,592
#APP
# 60 "include/type.h" 1
	lw a3, 0(a4)
# 0 "" 2
.LVL733:
	.loc 2 61 2
#NO_APP
.LBE2675:
.LBE2674:
	.loc 1 228 12
#APP
# 228 "dram/sun20iw1p1/mctl_standby-sun8iw20.c" 1
	fence i,r
# 0 "" 2
	.loc 1 228 12
	.loc 1 228 12
.LVL734:
#NO_APP
.LBE2673:
	.loc 1 229 2
	.loc 1 230 2
.LBB2676:
	.loc 1 230 2
#APP
# 230 "dram/sun20iw1p1/mctl_standby-sun8iw20.c" 1
	fence w,o
# 0 "" 2
	.loc 1 230 2
	.loc 1 230 2
.LVL735:
#NO_APP
.LBB2677:
.LBB2678:
	.loc 2 37 2
.LBE2678:
.LBE2677:
.LBE2676:
	.loc 1 229 10 is_stmt 0
	ori	a3,a3,3
.LVL736:
.LBB2681:
.LBB2680:
.LBB2679:
	.loc 2 37 2
#APP
# 37 "include/type.h" 1
	sw a3, 0(a4)
# 0 "" 2
.LVL737:
#NO_APP
.LBE2679:
.LBE2680:
	.loc 1 230 2 is_stmt 1
	.loc 1 230 2
.LBE2681:
	.loc 1 231 2
.LBE2755:
.LBE2765:
	.loc 1 47 2
	.loc 1 48 2
	.loc 1 48 13
.LBB2766:
.LBB2756:
	.loc 1 235 2
.LBB2682:
	.loc 1 235 2
#APP
# 235 "dram/sun20iw1p1/mctl_standby-sun8iw20.c" 1
	fence w,o
# 0 "" 2
	.loc 1 235 2
	.loc 1 235 2
.LVL738:
#NO_APP
.LBB2683:
.LBB2684:
	.loc 2 37 2
	li	a4,0
	addi	a5,a5,12
#APP
# 37 "include/type.h" 1
	sw a4, 0(a5)
# 0 "" 2
.LVL739:
#NO_APP
.LBE2684:
.LBE2683:
	.loc 1 235 2
	.loc 1 235 2
.LBE2682:
	.loc 1 241 2
.LBB2685:
	.loc 1 241 12
	.loc 1 241 12
	.loc 1 241 12
	.loc 1 241 12
.LBB2686:
.LBB2687:
	.loc 2 58 2
	.loc 2 60 2
	li	a3,33558528
	addi	a2,a3,1344
#APP
# 60 "include/type.h" 1
	lw a5, 0(a2)
# 0 "" 2
.LVL740:
	.loc 2 61 2
#NO_APP
.LBE2687:
.LBE2686:
	.loc 1 241 12
#APP
# 241 "dram/sun20iw1p1/mctl_standby-sun8iw20.c" 1
	fence i,r
# 0 "" 2
	.loc 1 241 12
	.loc 1 241 12
.LVL741:
#NO_APP
.LBE2685:
	.loc 1 242 2
	.loc 1 243 2
.LBB2688:
	.loc 1 243 2
#APP
# 243 "dram/sun20iw1p1/mctl_standby-sun8iw20.c" 1
	fence w,o
# 0 "" 2
	.loc 1 243 2
	.loc 1 243 2
.LVL742:
#NO_APP
.LBB2689:
.LBB2690:
	.loc 2 37 2
.LBE2690:
.LBE2689:
.LBE2688:
	.loc 1 242 10 is_stmt 0
	li	a4,-1073741824
	addi	a4,a4,-1
	and	a5,a4,a5
.LVL743:
.LBB2693:
.LBB2692:
.LBB2691:
	.loc 2 37 2
#APP
# 37 "include/type.h" 1
	sw a5, 0(a2)
# 0 "" 2
.LVL744:
#NO_APP
.LBE2691:
.LBE2692:
	.loc 1 243 2 is_stmt 1
	.loc 1 243 2
.LBE2693:
	.loc 1 245 2
.LBB2694:
	.loc 1 245 12
	.loc 1 245 12
	.loc 1 245 12
	.loc 1 245 12
.LBB2695:
.LBB2696:
	.loc 2 58 2
	.loc 2 60 2
	li	a5,33562624
	addi	a1,a5,-2036
.LVL745:
#APP
# 60 "include/type.h" 1
	lw a2, 0(a1)
# 0 "" 2
.LVL746:
	.loc 2 61 2
#NO_APP
.LBE2696:
.LBE2695:
	.loc 1 245 12
#APP
# 245 "dram/sun20iw1p1/mctl_standby-sun8iw20.c" 1
	fence i,r
# 0 "" 2
	.loc 1 245 12
	.loc 1 245 12
.LVL747:
#NO_APP
.LBE2694:
	.loc 1 246 2
	.loc 1 247 2
.LBB2697:
	.loc 1 247 2
#APP
# 247 "dram/sun20iw1p1/mctl_standby-sun8iw20.c" 1
	fence w,o
# 0 "" 2
	.loc 1 247 2
	.loc 1 247 2
.LVL748:
#NO_APP
.LBB2698:
.LBB2699:
	.loc 2 37 2
.LBE2699:
.LBE2698:
.LBE2697:
	.loc 1 246 10 is_stmt 0
	andi	a2,a2,-2
.LVL749:
.LBB2702:
.LBB2701:
.LBB2700:
	.loc 2 37 2
#APP
# 37 "include/type.h" 1
	sw a2, 0(a1)
# 0 "" 2
.LVL750:
#NO_APP
.LBE2700:
.LBE2701:
	.loc 1 247 2 is_stmt 1
	.loc 1 247 2
.LBE2702:
	.loc 1 250 2
.LBB2703:
	.loc 1 250 12
	.loc 1 250 12
	.loc 1 250 12
	.loc 1 250 12
.LBB2704:
.LBB2705:
	.loc 2 58 2
	.loc 2 60 2
#APP
# 60 "include/type.h" 1
	lw a0, 0(a1)
# 0 "" 2
.LVL751:
	.loc 2 61 2
#NO_APP
.LBE2705:
.LBE2704:
	.loc 1 250 12
#APP
# 250 "dram/sun20iw1p1/mctl_standby-sun8iw20.c" 1
	fence i,r
# 0 "" 2
	.loc 1 250 12
	.loc 1 250 12
.LVL752:
#NO_APP
.LBE2703:
	.loc 1 251 2
	.loc 1 252 2
.LBB2706:
	.loc 1 252 2
#APP
# 252 "dram/sun20iw1p1/mctl_standby-sun8iw20.c" 1
	fence w,o
# 0 "" 2
	.loc 1 252 2
	.loc 1 252 2
.LVL753:
#NO_APP
.LBB2707:
.LBB2708:
	.loc 2 37 2
.LBE2708:
.LBE2707:
.LBE2706:
	.loc 1 251 10 is_stmt 0
	li	a2,-65536
	addi	a2,a2,-1
	and	a2,a2,a0
.LBB2711:
.LBB2710:
.LBB2709:
	.loc 2 37 2
#APP
# 37 "include/type.h" 1
	sw a2, 0(a1)
# 0 "" 2
.LVL754:
#NO_APP
.LBE2709:
.LBE2710:
	.loc 1 252 2 is_stmt 1
	.loc 1 252 2
.LBE2711:
	.loc 1 254 2
.LBB2712:
	.loc 1 254 12
	.loc 1 254 12
	.loc 1 254 12
	.loc 1 254 12
.LBB2713:
.LBB2714:
	.loc 2 58 2
	.loc 2 60 2
	addi	a3,a3,16
#APP
# 60 "include/type.h" 1
	lw a2, 0(a3)
# 0 "" 2
.LVL755:
	.loc 2 61 2
#NO_APP
.LBE2714:
.LBE2713:
	.loc 1 254 12
#APP
# 254 "dram/sun20iw1p1/mctl_standby-sun8iw20.c" 1
	fence i,r
# 0 "" 2
	.loc 1 254 12
	.loc 1 254 12
.LVL756:
#NO_APP
.LBE2712:
	.loc 1 255 2
	.loc 1 256 2
.LBB2715:
	.loc 1 256 2
#APP
# 256 "dram/sun20iw1p1/mctl_standby-sun8iw20.c" 1
	fence w,o
# 0 "" 2
	.loc 1 256 2
	.loc 1 256 2
.LVL757:
#NO_APP
.LBB2716:
.LBB2717:
	.loc 2 37 2
.LBE2717:
.LBE2716:
.LBE2715:
	.loc 1 255 10 is_stmt 0
	extu	a2,a2,0+31-1,0
.LVL758:
.LBB2720:
.LBB2719:
.LBB2718:
	.loc 2 37 2
#APP
# 37 "include/type.h" 1
	sw a2, 0(a3)
# 0 "" 2
.LVL759:
#NO_APP
.LBE2718:
.LBE2719:
	.loc 1 256 2 is_stmt 1
	.loc 1 256 2
.LBE2720:
	.loc 1 259 2
.LBB2721:
	.loc 1 259 12
	.loc 1 259 12
	.loc 1 259 12
	.loc 1 259 12
.LBB2722:
.LBB2723:
	.loc 2 58 2
	.loc 2 60 2
	addi	a5,a5,-2048
#APP
# 60 "include/type.h" 1
	lw a3, 0(a5)
# 0 "" 2
.LVL760:
	.loc 2 61 2
#NO_APP
.LBE2723:
.LBE2722:
	.loc 1 259 12
#APP
# 259 "dram/sun20iw1p1/mctl_standby-sun8iw20.c" 1
	fence i,r
# 0 "" 2
	.loc 1 259 12
	.loc 1 259 12
.LVL761:
#NO_APP
.LBE2721:
	.loc 1 260 2
	.loc 1 261 2
.LBB2724:
	.loc 1 261 2
#APP
# 261 "dram/sun20iw1p1/mctl_standby-sun8iw20.c" 1
	fence w,o
# 0 "" 2
	.loc 1 261 2
	.loc 1 261 2
.LVL762:
#NO_APP
.LBB2725:
.LBB2726:
	.loc 2 37 2
.LBE2726:
.LBE2725:
.LBE2724:
	.loc 1 260 10 is_stmt 0
	and	a4,a4,a3
.LBB2729:
.LBB2728:
.LBB2727:
	.loc 2 37 2
#APP
# 37 "include/type.h" 1
	sw a4, 0(a5)
# 0 "" 2
.LVL763:
#NO_APP
.LBE2727:
.LBE2728:
	.loc 1 261 2 is_stmt 1
	.loc 1 261 2
.LBE2729:
	.loc 1 263 2
.LBB2730:
	.loc 1 263 12
	.loc 1 263 12
	.loc 1 263 12
	.loc 1 263 12
.LBB2731:
.LBB2732:
	.loc 2 58 2
	.loc 2 60 2
#APP
# 60 "include/type.h" 1
	lw a4, 0(a5)
# 0 "" 2
.LVL764:
	.loc 2 61 2
#NO_APP
.LBE2732:
.LBE2731:
	.loc 1 263 12
#APP
# 263 "dram/sun20iw1p1/mctl_standby-sun8iw20.c" 1
	fence i,r
# 0 "" 2
	.loc 1 263 12
	.loc 1 263 12
.LVL765:
#NO_APP
.LBE2730:
	.loc 1 264 2
	.loc 1 265 2
.LBB2733:
	.loc 1 265 2
#APP
# 265 "dram/sun20iw1p1/mctl_standby-sun8iw20.c" 1
	fence w,o
# 0 "" 2
	.loc 1 265 2
	.loc 1 265 2
.LVL766:
#NO_APP
.LBB2734:
.LBB2735:
	.loc 2 37 2
.LBE2735:
.LBE2734:
.LBE2733:
	.loc 1 264 10 is_stmt 0
	extu	a4,a4,0+31-1,0
.LVL767:
.LBB2738:
.LBB2737:
.LBB2736:
	.loc 2 37 2
#APP
# 37 "include/type.h" 1
	sw a4, 0(a5)
# 0 "" 2
.LVL768:
#NO_APP
.LBE2736:
.LBE2737:
	.loc 1 265 2 is_stmt 1
	.loc 1 265 2
.LBE2738:
	.loc 1 267 2
.LBB2739:
	.loc 1 267 12
	.loc 1 267 12
	.loc 1 267 12
	.loc 1 267 12
.LBB2740:
.LBB2741:
	.loc 2 58 2
	.loc 2 60 2
#APP
# 60 "include/type.h" 1
	lw a4, 0(a5)
# 0 "" 2
.LVL769:
	.loc 2 61 2
#NO_APP
.LBE2741:
.LBE2740:
	.loc 1 267 12
#APP
# 267 "dram/sun20iw1p1/mctl_standby-sun8iw20.c" 1
	fence i,r
# 0 "" 2
	.loc 1 267 12
	.loc 1 267 12
.LVL770:
#NO_APP
.LBE2739:
	.loc 1 268 2
	.loc 1 269 2
.LBB2742:
	.loc 1 269 2
#APP
# 269 "dram/sun20iw1p1/mctl_standby-sun8iw20.c" 1
	fence w,o
# 0 "" 2
	.loc 1 269 2
	.loc 1 269 2
.LVL771:
#NO_APP
.LBB2743:
.LBB2744:
	.loc 2 37 2
.LBE2744:
.LBE2743:
.LBE2742:
	.loc 1 268 10 is_stmt 0
	li	a3,134217728
.LVL772:
	or	a4,a4,a3
.LVL773:
.LBB2747:
.LBB2746:
.LBB2745:
	.loc 2 37 2
#APP
# 37 "include/type.h" 1
	sw a4, 0(a5)
# 0 "" 2
.LVL774:
#NO_APP
.LBE2745:
.LBE2746:
	.loc 1 269 2 is_stmt 1
	.loc 1 269 2
.LBE2747:
	.loc 1 270 2
.LBE2756:
.LBE2766:
	.loc 1 36 2
	.loc 1 37 2
	.loc 1 37 13
.LBB2767:
.LBB2757:
	.loc 1 272 2
.LBE2757:
.LBE2767:
	.loc 1 1252 2
	.loc 1 1253 1 is_stmt 0
	li	a0,0
.LVL775:
	ret
	.cfi_endproc
.LFE25:
	.size	dram_power_save_process, .-dram_power_save_process
	.align	1
	.align	4
	.globl	dram_power_up_process
	.type	dram_power_up_process, @function
dram_power_up_process:
.LFB26:
	.loc 1 1256 1 is_stmt 1
	.cfi_startproc
.LVL776:
	.loc 1 1257 2
	.loc 1 1258 2
.LBB2768:
.LBB2769:
	.loc 1 1244 2
	.loc 1 1245 2
	.loc 1 1245 8 is_stmt 0
	mv	a1,a0
	li	a0,0
.LVL777:
	tail	init_DRAM_standby
.LVL778:
.LBE2769:
.LBE2768:
	.cfi_endproc
.LFE26:
	.size	dram_power_up_process, .-dram_power_up_process
	.section	.rodata
	.align	3
	.set	.LANCHOR1,. + 0
	.type	CSWTCH.290, @object
	.size	CSWTCH.290, 7
CSWTCH.290:
	.byte	4
	.byte	1
	.byte	0
	.byte	4
	.byte	1
	.byte	0
	.byte	0
	.zero	1
	.type	CSWTCH.291, @object
	.size	CSWTCH.291, 7
CSWTCH.291:
	.byte	9
	.byte	7
	.byte	0
	.byte	12
	.byte	9
	.byte	0
	.byte	0
	.zero	1
	.type	CSWTCH.292, @object
	.size	CSWTCH.292, 7
CSWTCH.292:
	.byte	3
	.byte	8
	.byte	0
	.byte	10
	.byte	3
	.byte	0
	.byte	0
	.zero	1
	.type	CSWTCH.293, @object
	.size	CSWTCH.293, 7
CSWTCH.293:
	.byte	7
	.byte	12
	.byte	0
	.byte	7
	.byte	7
	.byte	0
	.byte	0
	.zero	1
	.type	CSWTCH.294, @object
	.size	CSWTCH.294, 7
CSWTCH.294:
	.byte	8
	.byte	10
	.byte	0
	.byte	8
	.byte	8
	.byte	0
	.byte	0
	.zero	1
	.type	CSWTCH.295, @object
	.size	CSWTCH.295, 7
CSWTCH.295:
	.byte	18
	.byte	18
	.byte	0
	.byte	18
	.byte	18
	.byte	0
	.byte	0
	.zero	1
	.type	CSWTCH.296, @object
	.size	CSWTCH.296, 7
CSWTCH.296:
	.byte	1
	.byte	4
	.byte	0
	.byte	1
	.byte	4
	.byte	0
	.byte	0
	.zero	1
	.type	CSWTCH.297, @object
	.size	CSWTCH.297, 7
CSWTCH.297:
	.byte	13
	.byte	13
	.byte	0
	.byte	13
	.byte	13
	.byte	0
	.byte	0
	.zero	1
	.type	CSWTCH.298, @object
	.size	CSWTCH.298, 7
CSWTCH.298:
	.byte	2
	.byte	5
	.byte	0
	.byte	2
	.byte	5
	.byte	0
	.byte	0
	.zero	1
	.type	CSWTCH.299, @object
	.size	CSWTCH.299, 7
CSWTCH.299:
	.byte	6
	.byte	6
	.byte	0
	.byte	6
	.byte	6
	.byte	0
	.byte	0
	.zero	1
	.type	CSWTCH.300, @object
	.size	CSWTCH.300, 7
CSWTCH.300:
	.byte	10
	.byte	3
	.byte	0
	.byte	3
	.byte	10
	.byte	0
	.byte	0
	.zero	1
	.type	CSWTCH.301, @object
	.size	CSWTCH.301, 7
CSWTCH.301:
	.byte	5
	.byte	2
	.byte	0
	.byte	5
	.byte	2
	.byte	0
	.byte	0
	.zero	1
	.type	CSWTCH.302, @object
	.size	CSWTCH.302, 7
CSWTCH.302:
	.byte	14
	.byte	9
	.byte	0
	.byte	9
	.byte	14
	.byte	0
	.byte	0
	.zero	1
	.type	CSWTCH.303, @object
	.size	CSWTCH.303, 7
CSWTCH.303:
	.byte	12
	.byte	0
	.byte	0
	.byte	0
	.byte	12
	.byte	0
	.byte	0
	.zero	1
	.type	CSWTCH.304, @object
	.size	CSWTCH.304, 7
CSWTCH.304:
	.byte	21
	.byte	21
	.byte	0
	.byte	21
	.byte	21
	.byte	0
	.byte	0
	.zero	1
	.type	CSWTCH.305, @object
	.size	CSWTCH.305, 7
CSWTCH.305:
	.byte	17
	.byte	17
	.byte	0
	.byte	17
	.byte	17
	.byte	0
	.byte	0
	.zero	1
	.type	CSWTCH.306, @object
	.size	CSWTCH.306, 7
CSWTCH.306:
	.byte	20
	.byte	20
	.byte	0
	.byte	20
	.byte	20
	.byte	0
	.byte	0
	.zero	1
	.type	CSWTCH.307, @object
	.size	CSWTCH.307, 7
CSWTCH.307:
	.byte	19
	.byte	19
	.byte	0
	.byte	19
	.byte	19
	.byte	0
	.byte	0
	.zero	1
	.type	CSWTCH.308, @object
	.size	CSWTCH.308, 7
CSWTCH.308:
	.byte	11
	.byte	11
	.byte	0
	.byte	11
	.byte	11
	.byte	0
	.byte	0
	.zero	1
	.type	CSWTCH.309, @object
	.size	CSWTCH.309, 7
CSWTCH.309:
	.byte	22
	.byte	22
	.byte	0
	.byte	22
	.byte	22
	.byte	0
	.byte	0
	.bss
	.align	3
	.set	.LANCHOR0,. + 0
	.type	reg, @object
	.size	reg, 400
reg:
	.zero	400
	.text
.Letext0:
	.file 3 "brandy/brandy-2.0/tools/toolchain/riscv64-glibc-gcc-thead_20200702/sysroot/usr/include/bits/types.h"
	.file 4 "brandy/brandy-2.0/tools/toolchain/riscv64-glibc-gcc-thead_20200702/sysroot/usr/include/bits/stdint-uintn.h"
	.file 5 "include/head.h"